ccollections
defaultdict
p0
(c__builtin__
int
p1
tp2
Rp3
(F40.7477802
F40.7477802
tp4
I9
s(F40.7550524
F40.7550524
tp5
I5
s(F40.754707
F40.754707
tp6
I25
s(F40.71867340000001
F40.71867340000001
tp7
I6
s(F40.728767
F40.728767
tp8
I2
s(F40.74824
F40.74824
tp9
I3
s(F40.7452008
F40.7452008
tp10
I5
s(F40.7040867
F40.7040867
tp11
I4
s(F40.7344133
F40.7344133
tp12
I4
s(F40.712593
F40.712593
tp13
I3
s(F40.7167695
F40.7167695
tp14
I1
s(F40.7502422
F40.7502422
tp15
I7
s(F40.7413576
F40.7413576
tp16
I4
s(F40.7293534
F40.7293534
tp17
I14
s(F40.7484741
F40.7484741
tp18
I21
s(F40.7083464
F40.7083464
tp19
I2
s(F40.7114643
F40.7114643
tp20
I1
s(F40.7166546
F40.7166546
tp21
I1
s(F40.7365646
F40.7365646
tp22
I11
s(F40.7117323
F40.7117323
tp23
I5
s(F40.7485249
F40.7485249
tp24
I11
s(F40.7245656
F40.7245656
tp25
I7
s(F40.694011
F40.694011
tp26
I4
s(F40.6910807
F40.6910807
tp27
I1
s(F40.7379273
F40.7379273
tp28
I2
s(F40.7650083
F40.7650083
tp29
I4
s(F40.7489141
F40.7489141
tp30
I2
s(F40.690897
F40.690897
tp31
I1
s(F40.7380935
F40.7380935
tp32
I5
s(F40.69807410000001
F40.69807410000001
tp33
I16
s(F40.7451288
F40.7451288
tp34
I3
s(F40.7195334
F40.7195334
tp35
I6
s(F40.7406249
F40.7406249
tp36
I14
s(F40.7150969
F40.7150969
tp37
I4
s(F40.69821839999999
F40.69821839999999
tp38
I9
s(F40.7496747
F40.7496747
tp39
I26
s(F40.7224459
F40.7224459
tp40
I1
s(F40.7329337
F40.7329337
tp41
I11
s(F40.7006891
F40.7006891
tp42
I1
s(F40.7636538
F40.7636538
tp43
I4
s(F40.72983
F40.72983
tp44
I4
s(F40.7200506
F40.7200506
tp45
I7
s(F40.716588
F40.716588
tp46
I2
s(F40.7634391
F40.7634391
tp47
I9
s(F40.7376989
F40.7376989
tp48
I2
s(F40.7226831
F40.7226831
tp49
I3
s(F40.7070997
F40.7070997
tp50
I1
s(F40.7230145
F40.7230145
tp51
I7
s(F40.72331
F40.72331
tp52
I1
s(F40.7323264
F40.7323264
tp53
I8
s(F40.7514581
F40.7514581
tp54
I1
s(F40.7186561
F40.7186561
tp55
I5
s(F40.7132956
F40.7132956
tp56
I5
s(F40.711185
F40.711185
tp57
I3
s(F40.699748
F40.699748
tp58
I8
s(F40.7185829
F40.7185829
tp59
I2
s(F40.7446203
F40.7446203
tp60
I1
s(F40.7173103
F40.7173103
tp61
I2
s(F40.74750590000001
F40.74750590000001
tp62
I4
s(F40.7426685
F40.7426685
tp63
I1
s(F40.7094957
F40.7094957
tp64
I1
s(F40.7364904
F40.7364904
tp65
I13
s(F40.746906
F40.746906
tp66
I10
s(F40.7127254
F40.7127254
tp67
I3
s(F40.744009
F40.744009
tp68
I27
s(F40.7551484
F40.7551484
tp69
I15
s(F40.7083979
F40.7083979
tp70
I7
s(F40.7231944
F40.7231944
tp71
I17
s(F40.695892
F40.695892
tp72
I2
s(F40.7006356
F40.7006356
tp73
I8
s(F40.6892592
F40.6892592
tp74
I4
s(F40.6844907
F40.6844907
tp75
I5
s(F40.7668993
F40.7668993
tp76
I1
s(F40.73108819999999
F40.73108819999999
tp77
I5
s(F40.7360158
F40.7360158
tp78
I2
s(F40.7145589
F40.7145589
tp79
I1
s(F40.7553579
F40.7553579
tp80
I8
s(F40.7335607
F40.7335607
tp81
I14
s(F40.737002
F40.737002
tp82
I24
s(F40.7531639
F40.7531639
tp83
I5
s(F40.7300201
F40.7300201
tp84
I13
s(F40.7154141
F40.7154141
tp85
I13
s(F40.7188858
F40.7188858
tp86
I4
s(F40.712735
F40.712735
tp87
I7
s(F40.7115112
F40.7115112
tp88
I19
s(F40.7440493
F40.7440493
tp89
I15
s(F40.7538879
F40.7538879
tp90
I1
s(F40.71353999999999
F40.71353999999999
tp91
I12
s(F40.7572276
F40.7572276
tp92
I30
s(F40.736204
F40.736204
tp93
I1
s(F40.7502839
F40.7502839
tp94
I10
s(F40.691981
F40.691981
tp95
I1
s(F40.7381366
F40.7381366
tp96
I12
s(F40.68693
F40.68693
tp97
I2
s(F40.703804
F40.703804
tp98
I4
s(F40.7268889
F40.7268889
tp99
I21
s(F40.7139341
F40.7139341
tp100
I6
s(F40.6962629
F40.6962629
tp101
I3
s(F40.7261987
F40.7261987
tp102
I20
s(F40.7529108
F40.7529108
tp103
I8
s(F40.7349116
F40.7349116
tp104
I12
s(F40.7139929
F40.7139929
tp105
I3
s(F40.6979269
F40.6979269
tp106
I3
s(F40.7295668
F40.7295668
tp107
I28
s(F40.714824
F40.714824
tp108
I7
s(F40.7566127
F40.7566127
tp109
I2
s(F40.74253059999999
F40.74253059999999
tp110
I89
s(F40.6879511
F40.6879511
tp111
I2
s(F40.688463
F40.688463
tp112
I1
s(F40.7579257
F40.7579257
tp113
I3
s(F40.7121505
F40.7121505
tp114
I14
s(F40.7632664
F40.7632664
tp115
I5
s(F40.7477843
F40.7477843
tp116
I1
s(F40.759578
F40.759578
tp117
I3
s(F40.7266087
F40.7266087
tp118
I3
s(F40.7359156
F40.7359156
tp119
I2
s(F40.704042
F40.704042
tp120
I10
s(F40.6866408
F40.6866408
tp121
I1
s(F40.7190149
F40.7190149
tp122
I2
s(F40.7128952
F40.7128952
tp123
I5
s(F40.76441459999999
F40.76441459999999
tp124
I14
s(F40.7281724
F40.7281724
tp125
I11
s(F40.7115432
F40.7115432
tp126
I19
s(F40.69992
F40.69992
tp127
I3
s(F40.7071864
F40.7071864
tp128
I8
s(F40.7397433
F40.7397433
tp129
I9
s(F40.7404281
F40.7404281
tp130
I1
s(F40.7509601
F40.7509601
tp131
I4
s(F40.736518
F40.736518
tp132
I22
s(F40.7407002
F40.7407002
tp133
I12
s(F40.7215986
F40.7215986
tp134
I9
s(F40.73197529999999
F40.73197529999999
tp135
I3
s(F40.7602309
F40.7602309
tp136
I9
s(F40.684816
F40.684816
tp137
I1
s(F40.74852600000001
F40.74852600000001
tp138
I9
s(F40.7339987
F40.7339987
tp139
I15
s(F40.7595325
F40.7595325
tp140
I5
s(F40.7373163
F40.7373163
tp141
I14
s(F40.701536
F40.701536
tp142
I5
s(F40.7194763
F40.7194763
tp143
I3
s(F40.7269325
F40.7269325
tp144
I10
s(F40.7346904
F40.7346904
tp145
I1
s(F40.7193035
F40.7193035
tp146
I6
s(F40.7514164
F40.7514164
tp147
I17
s(F40.7142758
F40.7142758
tp148
I1
s(F40.7333706
F40.7333706
tp149
I5
s(F40.7117069
F40.7117069
tp150
I17
s(F40.6983571
F40.6983571
tp151
I1
s(F40.71295629999999
F40.71295629999999
tp152
I13
s(F40.7470619
F40.7470619
tp153
I2
s(F40.7137542
F40.7137542
tp154
I1
s(F40.7137582
F40.7137582
tp155
I3
s(F40.7485575
F40.7485575
tp156
I7
s(F40.692154
F40.692154
tp157
I2
s(F40.7430282
F40.7430282
tp158
I8
s(F40.7394426
F40.7394426
tp159
I4
s(F40.6979174
F40.6979174
tp160
I3
s(F40.74410719999999
F40.74410719999999
tp161
I21
s(F40.7462015
F40.7462015
tp162
I12
s(F40.7399068
F40.7399068
tp163
I7
s(F40.7037932
F40.7037932
tp164
I2
s(F40.68847480000001
F40.68847480000001
tp165
I3
s(F40.721683
F40.721683
tp166
I1
s(F40.740444
F40.740444
tp167
I13
s(F40.7571719
F40.7571719
tp168
I2
s(F40.7433035
F40.7433035
tp169
I2
s(F40.7119756
F40.7119756
tp170
I4
s(F40.7025392
F40.7025392
tp171
I1
s(F40.7077927
F40.7077927
tp172
I2
s(F40.7503537
F40.7503537
tp173
I6
s(F40.7053428
F40.7053428
tp174
I1
s(F40.7222549
F40.7222549
tp175
I1
s(F40.7174309
F40.7174309
tp176
I11
s(F40.7438584
F40.7438584
tp177
I9
s(F40.717168
F40.717168
tp178
I1
s(F40.76747049999999
F40.76747049999999
tp179
I1
s(F40.728308
F40.728308
tp180
I1
s(F40.7191037
F40.7191037
tp181
I9
s(F40.710383
F40.710383
tp182
I1
s(F40.75533
F40.75533
tp183
I6
s(F40.691564
F40.691564
tp184
I1
s(F40.688558
F40.688558
tp185
I1
s(F40.7496432
F40.7496432
tp186
I4
s(F40.7025069
F40.7025069
tp187
I1
s(F40.7117571
F40.7117571
tp188
I5
s(F40.720893
F40.720893
tp189
I5
s(F40.7242997
F40.7242997
tp190
I22
s(F40.7359972
F40.7359972
tp191
I50
s(F40.7583273
F40.7583273
tp192
I1
s(F40.7135526
F40.7135526
tp193
I2
s(F40.73788870000001
F40.73788870000001
tp194
I16
s(F40.6979531
F40.6979531
tp195
I1
s(F40.7190683
F40.7190683
tp196
I6
s(F40.7136949
F40.7136949
tp197
I1
s(F40.7229545
F40.7229545
tp198
I8
s(F40.73463479999999
F40.73463479999999
tp199
I8
s(F40.7118777
F40.7118777
tp200
I2
s(F40.7093183
F40.7093183
tp201
I3
s(F40.7463827
F40.7463827
tp202
I2
s(F40.732328
F40.732328
tp203
I5
s(F40.7181721
F40.7181721
tp204
I2
s(F40.7620705
F40.7620705
tp205
I8
s(F40.7099175
F40.7099175
tp206
I2
s(F40.7176254
F40.7176254
tp207
I5
s(F40.7290635
F40.7290635
tp208
I4
s(F40.6838314
F40.6838314
tp209
I1
s(F40.707776
F40.707776
tp210
I2
s(F40.6994152
F40.6994152
tp211
I1
s(F40.756926
F40.756926
tp212
I4
s(F40.742839
F40.742839
tp213
I9
s(F40.6855142
F40.6855142
tp214
I4
s(F40.7058125
F40.7058125
tp215
I2
s(F40.7646611
F40.7646611
tp216
I5
s(F40.7671293
F40.7671293
tp217
I6
s(F40.7041798
F40.7041798
tp218
I16
s(F40.7576927
F40.7576927
tp219
I23
s(F40.7469242
F40.7469242
tp220
I24
s(F40.7350013
F40.7350013
tp221
I21
s(F40.7160163
F40.7160163
tp222
I1
s(F40.7172716
F40.7172716
tp223
I3
s(F40.7151889
F40.7151889
tp224
I10
s(F40.7096184
F40.7096184
tp225
I9
s(F40.737098
F40.737098
tp226
I23
s(F40.7141144
F40.7141144
tp227
I13
s(F40.7156504
F40.7156504
tp228
I21
s(F40.720757
F40.720757
tp229
I2
s(F40.725841
F40.725841
tp230
I2
s(F40.7023965
F40.7023965
tp231
I2
s(F40.6881789
F40.6881789
tp232
I5
s(F40.75451169999999
F40.75451169999999
tp233
I1
s(F40.6978344
F40.6978344
tp234
I1
s(F40.73180060000001
F40.73180060000001
tp235
I2
s(F40.71785999999999
F40.71785999999999
tp236
I3
s(F40.732517
F40.732517
tp237
I1
s(F40.754177
F40.754177
tp238
I5
s(F40.7294663
F40.7294663
tp239
I8
s(F40.7048403
F40.7048403
tp240
I24
s(F40.7155345
F40.7155345
tp241
I7
s(F40.754043
F40.754043
tp242
I1
s(F40.6852883
F40.6852883
tp243
I2
s(F40.7498231
F40.7498231
tp244
I11
s(F40.69703550000001
F40.69703550000001
tp245
I3
s(F40.7398526
F40.7398526
tp246
I8
s(F40.732748
F40.732748
tp247
I5
s(F40.7244455
F40.7244455
tp248
I12
s(F40.7235064
F40.7235064
tp249
I3
s(F40.74139650000001
F40.74139650000001
tp250
I9
s(F40.7155528
F40.7155528
tp251
I6
s(F40.7642247
F40.7642247
tp252
I7
s(F40.71787459999999
F40.71787459999999
tp253
I1
s(F40.7154389
F40.7154389
tp254
I1
s(F40.7262882
F40.7262882
tp255
I2
s(F40.73095199999999
F40.73095199999999
tp256
I1
s(F40.72125310000001
F40.72125310000001
tp257
I15
s(F40.7155648
F40.7155648
tp258
I6
s(F40.6982942
F40.6982942
tp259
I19
s(F40.7287487
F40.7287487
tp260
I13
s(F40.7155932
F40.7155932
tp261
I6
s(F40.724166
F40.724166
tp262
I2
s(F40.6961299
F40.6961299
tp263
I1
s(F40.749101
F40.749101
tp264
I10
s(F40.74282729999999
F40.74282729999999
tp265
I3
s(F40.7294843
F40.7294843
tp266
I7
s(F40.7365089
F40.7365089
tp267
I5
s(F40.7344697
F40.7344697
tp268
I1
s(F40.7329492
F40.7329492
tp269
I19
s(F40.7114005
F40.7114005
tp270
I1
s(F40.6934863
F40.6934863
tp271
I8
s(F40.6948088
F40.6948088
tp272
I4
s(F40.7121586
F40.7121586
tp273
I3
s(F40.7094596
F40.7094596
tp274
I2
s(F40.7616616
F40.7616616
tp275
I1
s(F40.7489605
F40.7489605
tp276
I14
s(F40.7258481
F40.7258481
tp277
I3
s(F40.7147
F40.7147
tp278
I3
s(F40.725895
F40.725895
tp279
I1
s(F40.693569
F40.693569
tp280
I1
s(F40.7251936
F40.7251936
tp281
I5
s(F40.7338067
F40.7338067
tp282
I9
s(F40.71314950000001
F40.71314950000001
tp283
I1
s(F40.6936063
F40.6936063
tp284
I11
s(F40.742903
F40.742903
tp285
I1
s(F40.742817
F40.742817
tp286
I19
s(F40.7224138
F40.7224138
tp287
I26
s(F40.7259213
F40.7259213
tp288
I8
s(F40.7428747
F40.7428747
tp289
I7
s(F40.7352898
F40.7352898
tp290
I1
s(F40.71524
F40.71524
tp291
I1
s(F40.7470899
F40.7470899
tp292
I2
s(F40.7120797
F40.7120797
tp293
I2
s(F40.752367
F40.752367
tp294
I5
s(F40.7045482
F40.7045482
tp295
I5
s(F40.7136509
F40.7136509
tp296
I1
s(F40.762915
F40.762915
tp297
I6
s(F40.7194488
F40.7194488
tp298
I3
s(F40.7422086
F40.7422086
tp299
I5
s(F40.7431951
F40.7431951
tp300
I3
s(F40.7263274
F40.7263274
tp301
I9
s(F40.7216982
F40.7216982
tp302
I20
s(F40.7082182
F40.7082182
tp303
I3
s(F40.7205017
F40.7205017
tp304
I1
s(F40.7120544
F40.7120544
tp305
I3
s(F40.7432199
F40.7432199
tp306
I6
s(F40.7145687
F40.7145687
tp307
I1
s(F40.7527056
F40.7527056
tp308
I3
s(F40.7339085
F40.7339085
tp309
I8
s(F40.7381569
F40.7381569
tp310
I10
s(F40.7406271
F40.7406271
tp311
I10
s(F40.7597409
F40.7597409
tp312
I7
s(F40.7456774
F40.7456774
tp313
I22
s(F40.7584554
F40.7584554
tp314
I5
s(F40.7162422
F40.7162422
tp315
I2
s(F40.7378694
F40.7378694
tp316
I10
s(F40.7529716
F40.7529716
tp317
I1
s(F40.7072692
F40.7072692
tp318
I4
s(F40.7669632
F40.7669632
tp319
I1
s(F40.7458183
F40.7458183
tp320
I16
s(F40.716172
F40.716172
tp321
I3
s(F40.7104295
F40.7104295
tp322
I19
s(F40.7596942
F40.7596942
tp323
I5
s(F40.7048149
F40.7048149
tp324
I2
s(F40.6998509
F40.6998509
tp325
I14
s(F40.7536329
F40.7536329
tp326
I16
s(F40.7242254
F40.7242254
tp327
I20
s(F40.7333734
F40.7333734
tp328
I7
s(F40.7138481
F40.7138481
tp329
I5
s(F40.7602536
F40.7602536
tp330
I1
s(F40.7216291
F40.7216291
tp331
I3
s(F40.7357542
F40.7357542
tp332
I1
s(F40.76013469999999
F40.76013469999999
tp333
I30
s(F40.7191137
F40.7191137
tp334
I2
s(F40.68763370000001
F40.68763370000001
tp335
I4
s(F40.7139224
F40.7139224
tp336
I1
s(F40.7024717
F40.7024717
tp337
I4
s(F40.71629180000001
F40.71629180000001
tp338
I11
s(F40.742029
F40.742029
tp339
I8
s(F40.7546361
F40.7546361
tp340
I6
s(F40.7301174
F40.7301174
tp341
I4
s(F40.7669282
F40.7669282
tp342
I13
s(F40.686323
F40.686323
tp343
I2
s(F40.7338431
F40.7338431
tp344
I16
s(F40.7223167
F40.7223167
tp345
I4
s(F40.757289
F40.757289
tp346
I1
s(F40.6991927
F40.6991927
tp347
I1
s(F40.7317091
F40.7317091
tp348
I1
s(F40.732017
F40.732017
tp349
I6
s(F40.7200455
F40.7200455
tp350
I5
s(F40.7116777
F40.7116777
tp351
I4
s(F40.7298615
F40.7298615
tp352
I2
s(F40.7602823
F40.7602823
tp353
I3
s(F40.6923604
F40.6923604
tp354
I3
s(F40.7162072
F40.7162072
tp355
I6
s(F40.6818761
F40.6818761
tp356
I1
s(F40.7127841
F40.7127841
tp357
I4
s(F40.73273349999999
F40.73273349999999
tp358
I3
s(F40.7402137
F40.7402137
tp359
I4
s(F40.6961917
F40.6961917
tp360
I4
s(F40.7499891
F40.7499891
tp361
I2
s(F40.7464045
F40.7464045
tp362
I22
s(F40.7640527
F40.7640527
tp363
I7
s(F40.7340152
F40.7340152
tp364
I13
s(F40.73044489999999
F40.73044489999999
tp365
I4
s(F40.7270823
F40.7270823
tp366
I16
s(F40.7567653
F40.7567653
tp367
I5
s(F40.72077530000001
F40.72077530000001
tp368
I11
s(F40.7606092
F40.7606092
tp369
I8
s(F40.6865174
F40.6865174
tp370
I3
s(F40.7306034
F40.7306034
tp371
I8
s(F40.73268950000001
F40.73268950000001
tp372
I3
s(F40.7334989
F40.7334989
tp373
I19
s(F40.7330729
F40.7330729
tp374
I1
s(F40.7507957
F40.7507957
tp375
I14
s(F40.7475435
F40.7475435
tp376
I11
s(F40.6895916
F40.6895916
tp377
I1
s(F40.7050362
F40.7050362
tp378
I1
s(F40.71572760000001
F40.71572760000001
tp379
I20
s(F40.7598833
F40.7598833
tp380
I7
s(F40.7434905
F40.7434905
tp381
I14
s(F40.7117769
F40.7117769
tp382
I11
s(F40.7332742
F40.7332742
tp383
I1
s(F40.737548
F40.737548
tp384
I2
s(F40.6937501
F40.6937501
tp385
I1
s(F40.7240898
F40.7240898
tp386
I1
s(F40.7165784
F40.7165784
tp387
I21
s(F40.74087610000001
F40.74087610000001
tp388
I8
s(F40.70295309999999
F40.70295309999999
tp389
I4
s(F40.7022455
F40.7022455
tp390
I33
s(F40.7516408
F40.7516408
tp391
I1
s(F40.7278604
F40.7278604
tp392
I10
s(F40.7305472
F40.7305472
tp393
I22
s(F40.7352777
F40.7352777
tp394
I3
s(F40.7509146
F40.7509146
tp395
I12
s(F40.7515863
F40.7515863
tp396
I5
s(F40.7117826
F40.7117826
tp397
I6
s(F40.7354071
F40.7354071
tp398
I4
s(F40.7368739
F40.7368739
tp399
I110
s(F40.7366894
F40.7366894
tp400
I6
s(F40.7484335
F40.7484335
tp401
I6
s(F40.740917
F40.740917
tp402
I8
s(F40.7291674
F40.7291674
tp403
I4
s(F40.7159175
F40.7159175
tp404
I7
s(F40.7144427
F40.7144427
tp405
I1
s(F40.7265019
F40.7265019
tp406
I9
s(F40.7187848
F40.7187848
tp407
I5
s(F40.7608905
F40.7608905
tp408
I11
s(F40.7242667
F40.7242667
tp409
I4
s(F40.7464513
F40.7464513
tp410
I2
s(F40.71200320000001
F40.71200320000001
tp411
I17
s(F40.73856000000001
F40.73856000000001
tp412
I3
s(F40.7173388
F40.7173388
tp413
I5
s(F40.7434926
F40.7434926
tp414
I7
s(F40.74529810000001
F40.74529810000001
tp415
I2
s(F40.7174093
F40.7174093
tp416
I1
s(F40.7130596
F40.7130596
tp417
I4
s(F40.7280718
F40.7280718
tp418
I8
s(F40.7182973
F40.7182973
tp419
I6
s(F40.742887
F40.742887
tp420
I11
s(F40.73599309999999
F40.73599309999999
tp421
I3
s(F40.7119331
F40.7119331
tp422
I1
s(F40.758453
F40.758453
tp423
I2
s(F40.7578527
F40.7578527
tp424
I3
s(F40.75858059999999
F40.75858059999999
tp425
I2
s(F40.70302
F40.70302
tp426
I3
s(F40.762721
F40.762721
tp427
I6
s(F40.7107301
F40.7107301
tp428
I2
s(F40.7472041
F40.7472041
tp429
I26
s(F40.7215366
F40.7215366
tp430
I14
s(F40.7327253
F40.7327253
tp431
I10
s(F40.7167283
F40.7167283
tp432
I2
s(F40.74694909999999
F40.74694909999999
tp433
I24
s(F40.695221
F40.695221
tp434
I2
s(F40.6997255
F40.6997255
tp435
I8
s(F40.7526569
F40.7526569
tp436
I4
s(F40.7293259
F40.7293259
tp437
I5
s(F40.7024555
F40.7024555
tp438
I4
s(F40.7387795
F40.7387795
tp439
I3
s(F40.7124876
F40.7124876
tp440
I46
s(F40.7396658
F40.7396658
tp441
I10
s(F40.7229927
F40.7229927
tp442
I6
s(F40.7297009
F40.7297009
tp443
I3
s(F40.740324
F40.740324
tp444
I15
s(F40.7520625
F40.7520625
tp445
I5
s(F40.715062
F40.715062
tp446
I6
s(F40.7361576
F40.7361576
tp447
I8
s(F40.6931169
F40.6931169
tp448
I5
s(F40.731638
F40.731638
tp449
I8
s(F40.7351982
F40.7351982
tp450
I9
s(F40.7310719
F40.7310719
tp451
I7
s(F40.71247049999999
F40.71247049999999
tp452
I13
s(F40.7210325
F40.7210325
tp453
I8
s(F40.70856759999999
F40.70856759999999
tp454
I4
s(F40.6976141
F40.6976141
tp455
I1
s(F40.7015734
F40.7015734
tp456
I3
s(F40.7220599
F40.7220599
tp457
I8
s(F40.7156107
F40.7156107
tp458
I14
s(F40.7419528
F40.7419528
tp459
I2
s(F40.7138572
F40.7138572
tp460
I5
s(F40.68091750000001
F40.68091750000001
tp461
I1
s(F40.6898206
F40.6898206
tp462
I1
s(F40.7376695
F40.7376695
tp463
I1
s(F40.7140518
F40.7140518
tp464
I3
s(F40.7504303
F40.7504303
tp465
I8
s(F40.7045579
F40.7045579
tp466
I7
s(F40.756567
F40.756567
tp467
I17
s(F40.6948273
F40.6948273
tp468
I2
s(F40.6922147
F40.6922147
tp469
I6
s(F40.689889
F40.689889
tp470
I1
s(F40.7629724
F40.7629724
tp471
I4
s(F40.7035924
F40.7035924
tp472
I9
s(F40.7597918
F40.7597918
tp473
I2
s(F40.6840798
F40.6840798
tp474
I1
s(F40.7514469
F40.7514469
tp475
I3
s(F40.7400926
F40.7400926
tp476
I2
s(F40.6840542
F40.6840542
tp477
I1
s(F40.7459153
F40.7459153
tp478
I3
s(F40.70552430000001
F40.70552430000001
tp479
I1
s(F40.7324491
F40.7324491
tp480
I41
s(F40.7060211
F40.7060211
tp481
I2
s(F40.733201
F40.733201
tp482
I10
s(F40.7154908
F40.7154908
tp483
I2
s(F40.7478614
F40.7478614
tp484
I5
s(F40.7082013
F40.7082013
tp485
I6
s(F40.7179232
F40.7179232
tp486
I8
s(F40.757961
F40.757961
tp487
I3
s(F40.7601632
F40.7601632
tp488
I1
s(F40.7609916
F40.7609916
tp489
I2
s(F40.7518689
F40.7518689
tp490
I30
s(F40.7546328
F40.7546328
tp491
I2
s(F40.7678074
F40.7678074
tp492
I6
s(F40.6920172
F40.6920172
tp493
I1
s(F40.7510161
F40.7510161
tp494
I2
s(F40.7442175
F40.7442175
tp495
I5
s(F40.6879823
F40.6879823
tp496
I1
s(F40.7374719
F40.7374719
tp497
I2
s(F40.7387544
F40.7387544
tp498
I3
s(F40.7173753
F40.7173753
tp499
I4
s(F40.7149993
F40.7149993
tp500
I7
s(F40.7559052
F40.7559052
tp501
I5
s(F40.6921396
F40.6921396
tp502
I2
s(F40.7421185
F40.7421185
tp503
I5
s(F40.72218120000001
F40.72218120000001
tp504
I1
s(F40.6949665
F40.6949665
tp505
I2
s(F40.7340871
F40.7340871
tp506
I3
s(F40.691017
F40.691017
tp507
I1
s(F40.746581
F40.746581
tp508
I13
s(F40.7314464
F40.7314464
tp509
I5
s(F40.7295535
F40.7295535
tp510
I5
s(F40.7455402
F40.7455402
tp511
I14
s(F40.7042609
F40.7042609
tp512
I2
s(F40.7390305
F40.7390305
tp513
I25
s(F40.7236548
F40.7236548
tp514
I3
s(F40.7245511
F40.7245511
tp515
I5
s(F40.74084999999999
F40.74084999999999
tp516
I75
s(F40.6898711
F40.6898711
tp517
I1
s(F40.723047
F40.723047
tp518
I4
s(F40.7439766
F40.7439766
tp519
I17
s(F40.74885949999999
F40.74885949999999
tp520
I14
s(F40.6983629
F40.6983629
tp521
I8
s(F40.7058106
F40.7058106
tp522
I4
s(F40.683714
F40.683714
tp523
I4
s(F40.7352841
F40.7352841
tp524
I12
s(F40.724783
F40.724783
tp525
I1
s(F40.755795
F40.755795
tp526
I2
s(F40.71455820000001
F40.71455820000001
tp527
I4
s(F40.7447655
F40.7447655
tp528
I15
s(F40.7209979
F40.7209979
tp529
I5
s(F40.71462270000001
F40.71462270000001
tp530
I1
s(F40.7346104
F40.7346104
tp531
I8
s(F40.7501443
F40.7501443
tp532
I7
s(F40.7521624
F40.7521624
tp533
I4
s(F40.7596427
F40.7596427
tp534
I5
s(F40.7068599
F40.7068599
tp535
I5
s(F40.6962782
F40.6962782
tp536
I3
s(F40.7517421
F40.7517421
tp537
I5
s(F40.7336089
F40.7336089
tp538
I1
s(F40.7467947
F40.7467947
tp539
I18
s(F40.7242778
F40.7242778
tp540
I11
s(F40.7100808
F40.7100808
tp541
I9
s(F40.7627314
F40.7627314
tp542
I10
s(F40.74448
F40.74448
tp543
I18
s(F40.757907
F40.757907
tp544
I14
s(F40.6917185
F40.6917185
tp545
I1
s(F40.7322259
F40.7322259
tp546
I11
s(F40.727382
F40.727382
tp547
I2
s(F40.752416
F40.752416
tp548
I9
s(F40.7022854
F40.7022854
tp549
I8
s(F40.7437953
F40.7437953
tp550
I15
s(F40.7116865
F40.7116865
tp551
I2
s(F40.722364
F40.722364
tp552
I15
s(F40.6899404
F40.6899404
tp553
I2
s(F40.7286707
F40.7286707
tp554
I6
s(F40.7571166
F40.7571166
tp555
I1
s(F40.7420182
F40.7420182
tp556
I3
s(F40.7337128
F40.7337128
tp557
I1
s(F40.7513611
F40.7513611
tp558
I1
s(F40.755869
F40.755869
tp559
I2
s(F40.7130354
F40.7130354
tp560
I5
s(F40.7571135
F40.7571135
tp561
I1
s(F40.7062084
F40.7062084
tp562
I1
s(F40.727835
F40.727835
tp563
I19
s(F40.7222217
F40.7222217
tp564
I2
s(F40.7417987
F40.7417987
tp565
I1
s(F40.7241244
F40.7241244
tp566
I14
s(F40.761518
F40.761518
tp567
I3
s(F40.7413912
F40.7413912
tp568
I3
s(F40.7521042
F40.7521042
tp569
I16
s(F40.71098310000001
F40.71098310000001
tp570
I13
s(F40.7249161
F40.7249161
tp571
I28
s(F40.6962687
F40.6962687
tp572
I38
s(F40.7242829
F40.7242829
tp573
I1
s(F40.74102
F40.74102
tp574
I8
s(F40.7210891
F40.7210891
tp575
I7
s(F40.7115934
F40.7115934
tp576
I15
s(F40.7521773
F40.7521773
tp577
I10
s(F40.7063804
F40.7063804
tp578
I1
s(F40.7143685
F40.7143685
tp579
I6
s(F40.7422925
F40.7422925
tp580
I16
s(F40.6945637
F40.6945637
tp581
I1
s(F40.7179404
F40.7179404
tp582
I2
s(F40.686996
F40.686996
tp583
I1
s(F40.7466611
F40.7466611
tp584
I12
s(F40.7161986
F40.7161986
tp585
I1
s(F40.7214665
F40.7214665
tp586
I15
s(F40.7291075
F40.7291075
tp587
I15
s(F40.7415481
F40.7415481
tp588
I5
s(F40.769516
F40.769516
tp589
I12
s(F40.7498844
F40.7498844
tp590
I14
s(F40.7555055
F40.7555055
tp591
I9
s(F40.7332923
F40.7332923
tp592
I5
s(F40.7416321
F40.7416321
tp593
I14
s(F40.7681592
F40.7681592
tp594
I2
s(F40.7007668
F40.7007668
tp595
I2
s(F40.694947
F40.694947
tp596
I2
s(F40.71282480000001
F40.71282480000001
tp597
I3
s(F40.7701296
F40.7701296
tp598
I4
s(F40.7236878
F40.7236878
tp599
I5
s(F40.7590676
F40.7590676
tp600
I1
s(F40.721929
F40.721929
tp601
I2
s(F40.71411639999999
F40.71411639999999
tp602
I1
s(F40.7012366
F40.7012366
tp603
I11
s(F40.7571543
F40.7571543
tp604
I4
s(F40.73820569999999
F40.73820569999999
tp605
I1
s(F40.72807419999999
F40.72807419999999
tp606
I2
s(F40.758978
F40.758978
tp607
I1
s(F40.7559941
F40.7559941
tp608
I2
s(F40.7124596
F40.7124596
tp609
I15
s(F40.7647976
F40.7647976
tp610
I13
s(F40.7608021
F40.7608021
tp611
I9
s(F40.73941
F40.73941
tp612
I18
s(F40.7566807
F40.7566807
tp613
I4
s(F40.7120216
F40.7120216
tp614
I16
s(F40.7291715
F40.7291715
tp615
I7
s(F40.7216256
F40.7216256
tp616
I3
s(F40.7161647
F40.7161647
tp617
I2
s(F40.737027
F40.737027
tp618
I3
s(F40.7609779
F40.7609779
tp619
I6
s(F40.7328666
F40.7328666
tp620
I27
s(F40.7586253
F40.7586253
tp621
I6
s(F40.7365174
F40.7365174
tp622
I5
s(F40.6875255
F40.6875255
tp623
I4
s(F40.7529921
F40.7529921
tp624
I14
s(F40.7564116
F40.7564116
tp625
I12
s(F40.7173143
F40.7173143
tp626
I19
s(F40.7416239
F40.7416239
tp627
I4
s(F40.702232
F40.702232
tp628
I3
s(F40.746657
F40.746657
tp629
I2
s(F40.7621155
F40.7621155
tp630
I3
s(F40.7387628
F40.7387628
tp631
I1
s(F40.7672398
F40.7672398
tp632
I3
s(F40.7111467
F40.7111467
tp633
I1
s(F40.7353038
F40.7353038
tp634
I26
s(F40.6960221
F40.6960221
tp635
I2
s(F40.71059289999999
F40.71059289999999
tp636
I1
s(F40.7393126
F40.7393126
tp637
I14
s(F40.7527253
F40.7527253
tp638
I13
s(F40.7521408
F40.7521408
tp639
I15
s(F40.7545607
F40.7545607
tp640
I5
s(F40.7444519
F40.7444519
tp641
I4
s(F40.726961
F40.726961
tp642
I7
s(F40.7665144
F40.7665144
tp643
I1
s(F40.7159955
F40.7159955
tp644
I3
s(F40.7275748
F40.7275748
tp645
I18
s(F40.7551768
F40.7551768
tp646
I1
s(F40.686522
F40.686522
tp647
I1
s(F40.7183498
F40.7183498
tp648
I4
s(F40.76563820000001
F40.76563820000001
tp649
I1
s(F40.7426106
F40.7426106
tp650
I5
s(F40.7647595
F40.7647595
tp651
I6
s(F40.7603128
F40.7603128
tp652
I7
s(F40.7623192
F40.7623192
tp653
I3
s(F40.7489323
F40.7489323
tp654
I11
s(F40.7141531
F40.7141531
tp655
I3
s(F40.7133078
F40.7133078
tp656
I1
s(F40.710384
F40.710384
tp657
I2
s(F40.7489953
F40.7489953
tp658
I22
s(F40.7303966
F40.7303966
tp659
I13
s(F40.7034889
F40.7034889
tp660
I1
s(F40.7285778
F40.7285778
tp661
I26
s(F40.7273316
F40.7273316
tp662
I17
s(F40.7680769
F40.7680769
tp663
I2
s(F40.6947804
F40.6947804
tp664
I2
s(F40.7577491
F40.7577491
tp665
I2
s(F40.720504
F40.720504
tp666
I12
s(F40.7379132
F40.7379132
tp667
I16
s(F40.7303214
F40.7303214
tp668
I31
s(F40.7293554
F40.7293554
tp669
I2
s(F40.7578253
F40.7578253
tp670
I2
s(F40.7149514
F40.7149514
tp671
I5
s(F40.759116
F40.759116
tp672
I1
s(F40.7303361
F40.7303361
tp673
I16
s(F40.7402522
F40.7402522
tp674
I14
s(F40.718861
F40.718861
tp675
I1
s(F40.7149247
F40.7149247
tp676
I3
s(F40.7244181
F40.7244181
tp677
I16
s(F40.7446311
F40.7446311
tp678
I19
s(F40.7232838
F40.7232838
tp679
I10
s(F40.7326491
F40.7326491
tp680
I1
s(F40.765359
F40.765359
tp681
I3
s(F40.6857797
F40.6857797
tp682
I2
s(F40.7478166
F40.7478166
tp683
I5
s(F40.7305353
F40.7305353
tp684
I13
s(F40.706584
F40.706584
tp685
I28
s(F40.71303959999999
F40.71303959999999
tp686
I3
s(F40.73052089999999
F40.73052089999999
tp687
I4
s(F40.7152659
F40.7152659
tp688
I5
s(F40.7345258
F40.7345258
tp689
I11
s(F40.7422539
F40.7422539
tp690
I8
s(F40.7105115
F40.7105115
tp691
I19
s(F40.7012005
F40.7012005
tp692
I30
s(F40.7628756
F40.7628756
tp693
I5
s(F40.714954
F40.714954
tp694
I1
s(F40.7438203
F40.7438203
tp695
I9
s(F40.7180466
F40.7180466
tp696
I5
s(F40.702424
F40.702424
tp697
I4
s(F40.74701779999999
F40.74701779999999
tp698
I20
s(F40.743095
F40.743095
tp699
I23
s(F40.7553174
F40.7553174
tp700
I5
s(F40.7193534
F40.7193534
tp701
I2
s(F40.7447677
F40.7447677
tp702
I12
s(F40.7302955
F40.7302955
tp703
I23
s(F40.6850983
F40.6850983
tp704
I4
s(F40.6916999
F40.6916999
tp705
I3
s(F40.7328137
F40.7328137
tp706
I3
s(F40.7532593
F40.7532593
tp707
I2
s(F40.7013598
F40.7013598
tp708
I1
s(F40.686352
F40.686352
tp709
I1
s(F40.6909052
F40.6909052
tp710
I1
s(F40.7174592
F40.7174592
tp711
I8
s(F40.7009929
F40.7009929
tp712
I5
s(F40.7665562
F40.7665562
tp713
I6
s(F40.70823300000001
F40.70823300000001
tp714
I2
s(F40.7520594
F40.7520594
tp715
I30
s(F40.7566969
F40.7566969
tp716
I6
s(F40.72342099999999
F40.72342099999999
tp717
I10
s(F40.7028357
F40.7028357
tp718
I3
s(F40.7698732
F40.7698732
tp719
I2
s(F40.76684119999999
F40.76684119999999
tp720
I1
s(F40.69190020000001
F40.69190020000001
tp721
I1
s(F40.7601364
F40.7601364
tp722
I6
s(F40.6979315
F40.6979315
tp723
I2
s(F40.723669
F40.723669
tp724
I6
s(F40.7348952
F40.7348952
tp725
I4
s(F40.713504
F40.713504
tp726
I2
s(F40.7558224
F40.7558224
tp727
I50
s(F40.7329396
F40.7329396
tp728
I6
s(F40.7108172
F40.7108172
tp729
I2
s(F40.7138628
F40.7138628
tp730
I1
s(F40.7372142
F40.7372142
tp731
I13
s(F40.6897561
F40.6897561
tp732
I2
s(F40.7347791
F40.7347791
tp733
I1
s(F40.7329583
F40.7329583
tp734
I5
s(F40.74015869999999
F40.74015869999999
tp735
I3
s(F40.7472392
F40.7472392
tp736
I1
s(F40.6984465
F40.6984465
tp737
I2
s(F40.685404
F40.685404
tp738
I1
s(F40.7095169
F40.7095169
tp739
I3
s(F40.7267404
F40.7267404
tp740
I5
s(F40.7007381
F40.7007381
tp741
I10
s(F40.7571634
F40.7571634
tp742
I9
s(F40.7477694
F40.7477694
tp743
I6
s(F40.75285700000001
F40.75285700000001
tp744
I3
s(F40.7417739
F40.7417739
tp745
I28
s(F40.7645712
F40.7645712
tp746
I13
s(F40.7690347
F40.7690347
tp747
I4
s(F40.7214268
F40.7214268
tp748
I1
s(F40.689468
F40.689468
tp749
I6
s(F40.6934845
F40.6934845
tp750
I4
s(F40.7393226
F40.7393226
tp751
I13
s(F40.70985830000001
F40.70985830000001
tp752
I11
s(F40.7211572
F40.7211572
tp753
I9
s(F40.6978401
F40.6978401
tp754
I1
s(F40.7115842
F40.7115842
tp755
I1
s(F40.7230856
F40.7230856
tp756
I3
s(F40.7281055
F40.7281055
tp757
I6
s(F40.6920941
F40.6920941
tp758
I8
s(F40.7167077
F40.7167077
tp759
I1
s(F40.74391139999999
F40.74391139999999
tp760
I7
s(F40.7255879
F40.7255879
tp761
I14
s(F40.7530131
F40.7530131
tp762
I9
s(F40.7568581
F40.7568581
tp763
I3
s(F40.7202112
F40.7202112
tp764
I10
s(F40.7552676
F40.7552676
tp765
I1
s(F40.7159115
F40.7159115
tp766
I2
s(F40.712436
F40.712436
tp767
I41
s(F40.7231324
F40.7231324
tp768
I10
s(F40.7375736
F40.7375736
tp769
I2
s(F40.7224767
F40.7224767
tp770
I4
s(F40.7325847
F40.7325847
tp771
I4
s(F40.73006880000001
F40.73006880000001
tp772
I2
s(F40.7186601
F40.7186601
tp773
I1
s(F40.71479619999999
F40.71479619999999
tp774
I5
s(F40.7283726
F40.7283726
tp775
I4
s(F40.7172121
F40.7172121
tp776
I8
s(F40.7226286
F40.7226286
tp777
I2
s(F40.6869302
F40.6869302
tp778
I1
s(F40.7491863
F40.7491863
tp779
I1
s(F40.7510303
F40.7510303
tp780
I1
s(F40.7119764
F40.7119764
tp781
I5
s(F40.7372245
F40.7372245
tp782
I3
s(F40.7155131
F40.7155131
tp783
I3
s(F40.7154521
F40.7154521
tp784
I7
s(F40.7159024
F40.7159024
tp785
I8
s(F40.6859561
F40.6859561
tp786
I1
s(F40.7516739
F40.7516739
tp787
I1
s(F40.7228996
F40.7228996
tp788
I10
s(F40.7022778
F40.7022778
tp789
I1
s(F40.7084625
F40.7084625
tp790
I1
s(F40.6970171
F40.6970171
tp791
I5
s(F40.7341053
F40.7341053
tp792
I7
s(F40.6982271
F40.6982271
tp793
I4
s(F40.74653929999999
F40.74653929999999
tp794
I2
s(F40.70640059999999
F40.70640059999999
tp795
I5
s(F40.731582
F40.731582
tp796
I1
s(F40.7339505
F40.7339505
tp797
I6
s(F40.7149751
F40.7149751
tp798
I5
s(F40.7610054
F40.7610054
tp799
I13
s(F40.6943575
F40.6943575
tp800
I4
s(F40.7385268
F40.7385268
tp801
I2
s(F40.7176823
F40.7176823
tp802
I2
s(F40.72103550000001
F40.72103550000001
tp803
I7
s(F40.6978811
F40.6978811
tp804
I2
s(F40.6977541
F40.6977541
tp805
I5
s(F40.7100281
F40.7100281
tp806
I1
s(F40.7180967
F40.7180967
tp807
I4
s(F40.7340256
F40.7340256
tp808
I9
s(F40.7659819
F40.7659819
tp809
I7
s(F40.7206605
F40.7206605
tp810
I2
s(F40.7307203
F40.7307203
tp811
I34
s(F40.7217846
F40.7217846
tp812
I7
s(F40.7439195
F40.7439195
tp813
I4
s(F40.7573799
F40.7573799
tp814
I5
s(F40.7316888
F40.7316888
tp815
I18
s(F40.71536010000001
F40.71536010000001
tp816
I1
s(F40.69947459999999
F40.69947459999999
tp817
I1
s(F40.7104879
F40.7104879
tp818
I2
s(F40.7327152
F40.7327152
tp819
I5
s(F40.7146502
F40.7146502
tp820
I1
s(F40.7141423
F40.7141423
tp821
I3
s(F40.7225876
F40.7225876
tp822
I7
s(F40.7287995
F40.7287995
tp823
I6
s(F40.7491024
F40.7491024
tp824
I13
s(F40.7257812
F40.7257812
tp825
I30
s(F40.7242681
F40.7242681
tp826
I20
s(F40.7227218
F40.7227218
tp827
I7
s(F40.7475404
F40.7475404
tp828
I4
s(F40.7128537
F40.7128537
tp829
I7
s(F40.6930997
F40.6930997
tp830
I1
s(F40.7716296
F40.7716296
tp831
I6
s(F40.6898418
F40.6898418
tp832
I2
s(F40.733438
F40.733438
tp833
I6
s(F40.7549787
F40.7549787
tp834
I10
s(F40.7295536
F40.7295536
tp835
I10
s(F40.7094435
F40.7094435
tp836
I7
s(F40.68233499999999
F40.68233499999999
tp837
I4
s(F40.6930765
F40.6930765
tp838
I2
s(F40.7142236
F40.7142236
tp839
I1
s(F40.7339194
F40.7339194
tp840
I6
s(F40.7295805
F40.7295805
tp841
I10
s(F40.7138521
F40.7138521
tp842
I1
s(F40.6963307
F40.6963307
tp843
I9
s(F40.765418
F40.765418
tp844
I9
s(F40.7186922
F40.7186922
tp845
I1
s(F40.7570202
F40.7570202
tp846
I4
s(F40.72237870000001
F40.72237870000001
tp847
I6
s(F40.7157452
F40.7157452
tp848
I2
s(F40.73697
F40.73697
tp849
I17
s(F40.7104404
F40.7104404
tp850
I9
s(F40.71421400000001
F40.71421400000001
tp851
I27
s(F40.7578418
F40.7578418
tp852
I5
s(F40.7143318
F40.7143318
tp853
I16
s(F40.7151786
F40.7151786
tp854
I1
s(F40.7222756
F40.7222756
tp855
I11
s(F40.71306
F40.71306
tp856
I5
s(F40.6944628
F40.6944628
tp857
I2
s(F40.7038945
F40.7038945
tp858
I1
s(F40.7248988
F40.7248988
tp859
I25
s(F40.7299926
F40.7299926
tp860
I4
s(F40.684527
F40.684527
tp861
I1
s(F40.713484
F40.713484
tp862
I1
s(F40.7674117
F40.7674117
tp863
I8
s(F40.7173476
F40.7173476
tp864
I2
s(F40.7111807
F40.7111807
tp865
I18
s(F40.7181848
F40.7181848
tp866
I21
s(F40.7143004
F40.7143004
tp867
I1
s(F40.7208445
F40.7208445
tp868
I3
s(F40.7489821
F40.7489821
tp869
I14
s(F40.714067
F40.714067
tp870
I5
s(F40.7539319
F40.7539319
tp871
I1
s(F40.69238199999999
F40.69238199999999
tp872
I3
s(F40.6899852
F40.6899852
tp873
I3
s(F40.7107831
F40.7107831
tp874
I6
s(F40.72064630000001
F40.72064630000001
tp875
I9
s(F40.7556152
F40.7556152
tp876
I8
s(F40.7513833
F40.7513833
tp877
I14
s(F40.6897106
F40.6897106
tp878
I1
s(F40.7425772
F40.7425772
tp879
I3
s(F40.69153499999999
F40.69153499999999
tp880
I4
s(F40.7496782
F40.7496782
tp881
I8
s(F40.72628479999999
F40.72628479999999
tp882
I3
s(F40.7497096
F40.7497096
tp883
I4
s(F40.7219187
F40.7219187
tp884
I5
s(F40.7175755
F40.7175755
tp885
I3
s(F40.7570669
F40.7570669
tp886
I2
s(F40.7313069
F40.7313069
tp887
I5
s(F40.7127994
F40.7127994
tp888
I3
s(F40.69983879999999
F40.69983879999999
tp889
I8
s(F40.7482591
F40.7482591
tp890
I8
s(F40.7234861
F40.7234861
tp891
I1
s(F40.7047379
F40.7047379
tp892
I1
s(F40.7153217
F40.7153217
tp893
I2
s(F40.713292
F40.713292
tp894
I1
s(F40.7509898
F40.7509898
tp895
I5
s(F40.720447
F40.720447
tp896
I5
s(F40.7241246
F40.7241246
tp897
I47
s(F40.6938761
F40.6938761
tp898
I3
s(F40.7573947
F40.7573947
tp899
I1
s(F40.7056309
F40.7056309
tp900
I5
s(F40.7548003
F40.7548003
tp901
I11
s(F40.74717
F40.74717
tp902
I2
s(F40.721624
F40.721624
tp903
I28
s(F40.7432476
F40.7432476
tp904
I2
s(F40.7145826
F40.7145826
tp905
I16
s(F40.7396716
F40.7396716
tp906
I14
s(F40.7198839
F40.7198839
tp907
I1
s(F40.7188044
F40.7188044
tp908
I3
s(F40.7105542
F40.7105542
tp909
I3
s(F40.7024346
F40.7024346
tp910
I7
s(F40.7013225
F40.7013225
tp911
I4
s(F40.7206402
F40.7206402
tp912
I7
s(F40.7269556
F40.7269556
tp913
I28
s(F40.7458336
F40.7458336
tp914
I8
s(F40.7515149
F40.7515149
tp915
I6
s(F40.6898857
F40.6898857
tp916
I1
s(F40.7559092
F40.7559092
tp917
I14
s(F40.70817
F40.70817
tp918
I1
s(F40.7593444
F40.7593444
tp919
I2
s(F40.6921209
F40.6921209
tp920
I4
s(F40.7521087
F40.7521087
tp921
I6
s(F40.7622465
F40.7622465
tp922
I12
s(F40.7028659
F40.7028659
tp923
I1
s(F40.7517369
F40.7517369
tp924
I3
s(F40.7671971
F40.7671971
tp925
I3
s(F40.7578115
F40.7578115
tp926
I4
s(F40.7023984
F40.7023984
tp927
I1
s(F40.7062308
F40.7062308
tp928
I3
s(F40.6994485
F40.6994485
tp929
I2
s(F40.7203382
F40.7203382
tp930
I4
s(F40.7333147
F40.7333147
tp931
I12
s(F40.7245939
F40.7245939
tp932
I12
s(F40.7330995
F40.7330995
tp933
I6
s(F40.6875437
F40.6875437
tp934
I2
s(F40.7543392
F40.7543392
tp935
I13
s(F40.7104599
F40.7104599
tp936
I3
s(F40.7122806
F40.7122806
tp937
I1
s(F40.7390814
F40.7390814
tp938
I1
s(F40.7168804
F40.7168804
tp939
I2
s(F40.7082703
F40.7082703
tp940
I2
s(F40.7416504
F40.7416504
tp941
I4
s(F40.7209004
F40.7209004
tp942
I1
s(F40.7565386
F40.7565386
tp943
I15
s(F40.7091466
F40.7091466
tp944
I2
s(F40.695012
F40.695012
tp945
I2
s(F40.7074452
F40.7074452
tp946
I2
s(F40.7652938
F40.7652938
tp947
I6
s(F40.74302429999999
F40.74302429999999
tp948
I1
s(F40.766614
F40.766614
tp949
I9
s(F40.7090896
F40.7090896
tp950
I6
s(F40.7223304
F40.7223304
tp951
I30
s(F40.7422366
F40.7422366
tp952
I13
s(F40.7291746
F40.7291746
tp953
I7
s(F40.7422317
F40.7422317
tp954
I17
s(F40.7160572
F40.7160572
tp955
I7
s(F40.7354592
F40.7354592
tp956
I7
s(F40.70454
F40.70454
tp957
I11
s(F40.7505759
F40.7505759
tp958
I2
s(F40.6975344
F40.6975344
tp959
I1
s(F40.7001028
F40.7001028
tp960
I1
s(F40.7137525
F40.7137525
tp961
I1
s(F40.7045116
F40.7045116
tp962
I18
s(F40.7358984
F40.7358984
tp963
I4
s(F40.745952
F40.745952
tp964
I8
s(F40.7143549
F40.7143549
tp965
I19
s(F40.7380268
F40.7380268
tp966
I3
s(F40.75395959999999
F40.75395959999999
tp967
I1
s(F40.7534056
F40.7534056
tp968
I1
s(F40.74463919999999
F40.74463919999999
tp969
I17
s(F40.689837
F40.689837
tp970
I3
s(F40.713634
F40.713634
tp971
I16
s(F40.7598383
F40.7598383
tp972
I24
s(F40.7551488
F40.7551488
tp973
I9
s(F40.7328437
F40.7328437
tp974
I16
s(F40.717271
F40.717271
tp975
I4
s(F40.7564542
F40.7564542
tp976
I5
s(F40.7186342
F40.7186342
tp977
I3
s(F40.7456737
F40.7456737
tp978
I3
s(F40.7322455
F40.7322455
tp979
I5
s(F40.7515799
F40.7515799
tp980
I2
s(F40.7274661
F40.7274661
tp981
I11
s(F40.72647420000001
F40.72647420000001
tp982
I1
s(F40.7452043
F40.7452043
tp983
I17
s(F40.7333971
F40.7333971
tp984
I3
s(F40.7541608
F40.7541608
tp985
I7
s(F40.7061348
F40.7061348
tp986
I4
s(F40.7428789
F40.7428789
tp987
I1
s(F40.7007056
F40.7007056
tp988
I2
s(F40.7635447
F40.7635447
tp989
I17
s(F40.735798
F40.735798
tp990
I1
s(F40.7416331
F40.7416331
tp991
I1
s(F40.6892127
F40.6892127
tp992
I6
s(F40.7095027
F40.7095027
tp993
I2
s(F40.7036506
F40.7036506
tp994
I4
s(F40.7088967
F40.7088967
tp995
I9
s(F40.7332426
F40.7332426
tp996
I6
s(F40.7222908
F40.7222908
tp997
I1
s(F40.6937121
F40.6937121
tp998
I2
s(F40.7151384
F40.7151384
tp999
I1
s(F40.6961278
F40.6961278
tp1000
I1
s(F40.7299997
F40.7299997
tp1001
I3
s(F40.7071033
F40.7071033
tp1002
I1
s(F40.7585406
F40.7585406
tp1003
I15
s(F40.7377616
F40.7377616
tp1004
I6
s(F40.7525905
F40.7525905
tp1005
I3
s(F40.71020250000001
F40.71020250000001
tp1006
I16
s(F40.7452271
F40.7452271
tp1007
I28
s(F40.720684
F40.720684
tp1008
I4
s(F40.7341329
F40.7341329
tp1009
I1
s(F40.6818738
F40.6818738
tp1010
I1
s(F40.7387548
F40.7387548
tp1011
I7
s(F40.7181661
F40.7181661
tp1012
I16
s(F40.7502703
F40.7502703
tp1013
I23
s(F40.75701309999999
F40.75701309999999
tp1014
I5
s(F40.6935364
F40.6935364
tp1015
I1
s(F40.724291
F40.724291
tp1016
I6
s(F40.6932267
F40.6932267
tp1017
I2
s(F40.6995861
F40.6995861
tp1018
I1
s(F40.7226717
F40.7226717
tp1019
I1
s(F40.6945343
F40.6945343
tp1020
I2
s(F40.7216352
F40.7216352
tp1021
I3
s(F40.7149101
F40.7149101
tp1022
I10
s(F40.7341486
F40.7341486
tp1023
I27
s(F40.7239323
F40.7239323
tp1024
I15
s(F40.6980428
F40.6980428
tp1025
I1
s(F40.6927713
F40.6927713
tp1026
I4
s(F40.74859
F40.74859
tp1027
I9
s(F40.7081787
F40.7081787
tp1028
I8
s(F40.7434215
F40.7434215
tp1029
I34
s(F40.7677767
F40.7677767
tp1030
I4
s(F40.7199886
F40.7199886
tp1031
I4
s(F40.7552916
F40.7552916
tp1032
I11
s(F40.7040168
F40.7040168
tp1033
I10
s(F40.7385065
F40.7385065
tp1034
I9
s(F40.7391612
F40.7391612
tp1035
I19
s(F40.7245914
F40.7245914
tp1036
I15
s(F40.7452406
F40.7452406
tp1037
I1
s(F40.742254
F40.742254
tp1038
I2
s(F40.7261734
F40.7261734
tp1039
I11
s(F40.7143147
F40.7143147
tp1040
I8
s(F40.74126870000001
F40.74126870000001
tp1041
I13
s(F40.7538963
F40.7538963
tp1042
I1
s(F40.6958132
F40.6958132
tp1043
I1
s(F40.7219635
F40.7219635
tp1044
I7
s(F40.7365839
F40.7365839
tp1045
I14
s(F40.7593292
F40.7593292
tp1046
I15
s(F40.7102125
F40.7102125
tp1047
I11
s(F40.7165477
F40.7165477
tp1048
I4
s(F40.7710569
F40.7710569
tp1049
I2
s(F40.7330208
F40.7330208
tp1050
I3
s(F40.7114199
F40.7114199
tp1051
I1
s(F40.6836827
F40.6836827
tp1052
I3
s(F40.6922988
F40.6922988
tp1053
I2
s(F40.7187298
F40.7187298
tp1054
I4
s(F40.7258593
F40.7258593
tp1055
I2
s(F40.7363627
F40.7363627
tp1056
I12
s(F40.7200466
F40.7200466
tp1057
I7
s(F40.7086275
F40.7086275
tp1058
I2
s(F40.7342534
F40.7342534
tp1059
I8
s(F40.7225032
F40.7225032
tp1060
I5
s(F40.6932938
F40.6932938
tp1061
I7
s(F40.719086
F40.719086
tp1062
I2
s(F40.7101104
F40.7101104
tp1063
I2
s(F40.6995042
F40.6995042
tp1064
I2
s(F40.7440656
F40.7440656
tp1065
I2
s(F40.7322113
F40.7322113
tp1066
I3
s(F40.6886186
F40.6886186
tp1067
I1
s(F40.73483400000001
F40.73483400000001
tp1068
I5
s(F40.6962731
F40.6962731
tp1069
I8
s(F40.7208259
F40.7208259
tp1070
I7
s(F40.7506361
F40.7506361
tp1071
I17
s(F40.71522119999999
F40.71522119999999
tp1072
I4
s(F40.729149
F40.729149
tp1073
I8
s(F40.7147048
F40.7147048
tp1074
I1
s(F40.7258816
F40.7258816
tp1075
I4
s(F40.7144054
F40.7144054
tp1076
I2
s(F40.6911716
F40.6911716
tp1077
I2
s(F40.6900293
F40.6900293
tp1078
I8
s(F40.7672333
F40.7672333
tp1079
I10
s(F40.7545896
F40.7545896
tp1080
I8
s(F40.7392146
F40.7392146
tp1081
I1
s(F40.6897052
F40.6897052
tp1082
I2
s(F40.689782
F40.689782
tp1083
I1
s(F40.6933819
F40.6933819
tp1084
I2
s(F40.7128102
F40.7128102
tp1085
I1
s(F40.7586456
F40.7586456
tp1086
I2
s(F40.71190259999999
F40.71190259999999
tp1087
I1
s(F40.7025105
F40.7025105
tp1088
I4
s(F40.7531155
F40.7531155
tp1089
I18
s(F40.7190891
F40.7190891
tp1090
I10
s(F40.6960476
F40.6960476
tp1091
I7
s(F40.6857765
F40.6857765
tp1092
I3
s(F40.738756
F40.738756
tp1093
I6
s(F40.73244589999999
F40.73244589999999
tp1094
I7
s(F40.7052682
F40.7052682
tp1095
I1
s(F40.7387685
F40.7387685
tp1096
I20
s(F40.7041751
F40.7041751
tp1097
I16
s(F40.73232489999999
F40.73232489999999
tp1098
I13
s(F40.6932674
F40.6932674
tp1099
I1
s(F40.7046833
F40.7046833
tp1100
I6
s(F40.722179
F40.722179
tp1101
I1
s(F40.7249175
F40.7249175
tp1102
I4
s(F40.6962137
F40.6962137
tp1103
I11
s(F40.7468757
F40.7468757
tp1104
I9
s(F40.7301664
F40.7301664
tp1105
I7
s(F40.7517397
F40.7517397
tp1106
I3
s(F40.725655
F40.725655
tp1107
I6
s(F40.7312869
F40.7312869
tp1108
I3
s(F40.7357748
F40.7357748
tp1109
I6
s(F40.7042618
F40.7042618
tp1110
I16
s(F40.7027898
F40.7027898
tp1111
I3
s(F40.7400264
F40.7400264
tp1112
I7
s(F40.75532949999999
F40.75532949999999
tp1113
I2
s(F40.7312538
F40.7312538
tp1114
I12
s(F40.7133398
F40.7133398
tp1115
I6
s(F40.7047811
F40.7047811
tp1116
I1
s(F40.73479469999999
F40.73479469999999
tp1117
I12
s(F40.7332802
F40.7332802
tp1118
I3
s(F40.7468927
F40.7468927
tp1119
I1
s(F40.7546167
F40.7546167
tp1120
I6
s(F40.7583115
F40.7583115
tp1121
I6
s(F40.7052466
F40.7052466
tp1122
I4
s(F40.7634871
F40.7634871
tp1123
I1
s(F40.7249392
F40.7249392
tp1124
I6
s(F40.756034
F40.756034
tp1125
I41
s(F40.7127025
F40.7127025
tp1126
I17
s(F40.7683954
F40.7683954
tp1127
I6
s(F40.7162669
F40.7162669
tp1128
I13
s(F40.7193269
F40.7193269
tp1129
I1
s(F40.745861
F40.745861
tp1130
I1
s(F40.693205
F40.693205
tp1131
I1
s(F40.75799809999999
F40.75799809999999
tp1132
I12
s(F40.6879536
F40.6879536
tp1133
I1
s(F40.7365117
F40.7365117
tp1134
I2
s(F40.7507727
F40.7507727
tp1135
I1
s(F40.7264193
F40.7264193
tp1136
I19
s(F40.736658
F40.736658
tp1137
I7
s(F40.7073755
F40.7073755
tp1138
I1
s(F40.6998785
F40.6998785
tp1139
I7
s(F40.7174444
F40.7174444
tp1140
I23
s(F40.7389198
F40.7389198
tp1141
I4
s(F40.7434267
F40.7434267
tp1142
I1
s(F40.7378063
F40.7378063
tp1143
I11
s(F40.7337223
F40.7337223
tp1144
I15
s(F40.753191
F40.753191
tp1145
I10
s(F40.7328493
F40.7328493
tp1146
I5
s(F40.6906609
F40.6906609
tp1147
I1
s(F40.7196024
F40.7196024
tp1148
I3
s(F40.7640121
F40.7640121
tp1149
I2
s(F40.7113394
F40.7113394
tp1150
I2
s(F40.7502166
F40.7502166
tp1151
I2
s(F40.7123456
F40.7123456
tp1152
I2
s(F40.7361892
F40.7361892
tp1153
I15
s(F40.7038296
F40.7038296
tp1154
I1
s(F40.7660501
F40.7660501
tp1155
I10
s(F40.7508373
F40.7508373
tp1156
I7
s(F40.7229941
F40.7229941
tp1157
I31
s(F40.7559504
F40.7559504
tp1158
I21
s(F40.684799
F40.684799
tp1159
I1
s(F40.7538768
F40.7538768
tp1160
I2
s(F40.7162118
F40.7162118
tp1161
I1
s(F40.73228779999999
F40.73228779999999
tp1162
I13
s(F40.6852898
F40.6852898
tp1163
I6
s(F40.6936363
F40.6936363
tp1164
I2
s(F40.7431247
F40.7431247
tp1165
I22
s(F40.7496009
F40.7496009
tp1166
I15
s(F40.68606399999999
F40.68606399999999
tp1167
I1
s(F40.7164859
F40.7164859
tp1168
I5
s(F40.7398528
F40.7398528
tp1169
I9
s(F40.7181224
F40.7181224
tp1170
I1
s(F40.714265
F40.714265
tp1171
I10
s(F40.714436
F40.714436
tp1172
I4
s(F40.7188878
F40.7188878
tp1173
I3
s(F40.7485815
F40.7485815
tp1174
I1
s(F40.71553230000001
F40.71553230000001
tp1175
I14
s(F40.7135146
F40.7135146
tp1176
I4
s(F40.7393722
F40.7393722
tp1177
I31
s(F40.74330270000001
F40.74330270000001
tp1178
I2
s(F40.7248734
F40.7248734
tp1179
I4
s(F40.7253003
F40.7253003
tp1180
I6
s(F40.7609335
F40.7609335
tp1181
I6
s(F40.7305253
F40.7305253
tp1182
I11
s(F40.7313232
F40.7313232
tp1183
I3
s(F40.7327314
F40.7327314
tp1184
I7
s(F40.7289204
F40.7289204
tp1185
I4
s(F40.753474
F40.753474
tp1186
I1
s(F40.6868692
F40.6868692
tp1187
I1
s(F40.7369657
F40.7369657
tp1188
I1
s(F40.6947321
F40.6947321
tp1189
I1
s(F40.7428877
F40.7428877
tp1190
I14
s(F40.7072464
F40.7072464
tp1191
I3
s(F40.7602612
F40.7602612
tp1192
I11
s(F40.7184069
F40.7184069
tp1193
I10
s(F40.76368009999999
F40.76368009999999
tp1194
I4
s(F40.6842116
F40.6842116
tp1195
I1
s(F40.7057205
F40.7057205
tp1196
I9
s(F40.7254486
F40.7254486
tp1197
I5
s(F40.7193991
F40.7193991
tp1198
I2
s(F40.7182434
F40.7182434
tp1199
I4
s(F40.7382241
F40.7382241
tp1200
I10
s(F40.720422
F40.720422
tp1201
I9
s(F40.69757329999999
F40.69757329999999
tp1202
I2
s(F40.7682692
F40.7682692
tp1203
I7
s(F40.7153839
F40.7153839
tp1204
I22
s(F40.7029664
F40.7029664
tp1205
I4
s(F40.6835643
F40.6835643
tp1206
I4
s(F40.7153079
F40.7153079
tp1207
I44
s(F40.7476796
F40.7476796
tp1208
I2
s(F40.7268756
F40.7268756
tp1209
I4
s(F40.6942868
F40.6942868
tp1210
I3
s(F40.7317192
F40.7317192
tp1211
I2
s(F40.7507482
F40.7507482
tp1212
I3
s(F40.724462
F40.724462
tp1213
I4
s(F40.7423534
F40.7423534
tp1214
I5
s(F40.7340598
F40.7340598
tp1215
I6
s(F40.7336342
F40.7336342
tp1216
I11
s(F40.7381335
F40.7381335
tp1217
I11
s(F40.7124831
F40.7124831
tp1218
I16
s(F40.68553000000001
F40.68553000000001
tp1219
I2
s(F40.7137894
F40.7137894
tp1220
I1
s(F40.6976202
F40.6976202
tp1221
I8
s(F40.7432273
F40.7432273
tp1222
I1
s(F40.724628
F40.724628
tp1223
I4
s(F40.7277365
F40.7277365
tp1224
I8
s(F40.7236669
F40.7236669
tp1225
I24
s(F40.7602427
F40.7602427
tp1226
I1
s(F40.73116539999999
F40.73116539999999
tp1227
I1
s(F40.701137
F40.701137
tp1228
I2
s(F40.7539102
F40.7539102
tp1229
I1
s(F40.7223915
F40.7223915
tp1230
I12
s(F40.7102288
F40.7102288
tp1231
I3
s(F40.7446813
F40.7446813
tp1232
I4
s(F40.7272618
F40.7272618
tp1233
I13
s(F40.7027702
F40.7027702
tp1234
I4
s(F40.7365263
F40.7365263
tp1235
I4
s(F40.7222989
F40.7222989
tp1236
I25
s(F40.7104582
F40.7104582
tp1237
I2
s(F40.7237668
F40.7237668
tp1238
I1
s(F40.7515325
F40.7515325
tp1239
I15
s(F40.7138298
F40.7138298
tp1240
I4
s(F40.7333229
F40.7333229
tp1241
I9
s(F40.7297365
F40.7297365
tp1242
I1
s(F40.7204176
F40.7204176
tp1243
I5
s(F40.7656852
F40.7656852
tp1244
I13
s(F40.7046431
F40.7046431
tp1245
I24
s(F40.7402923
F40.7402923
tp1246
I13
s(F40.6992856
F40.6992856
tp1247
I1
s(F40.759166
F40.759166
tp1248
I2
s(F40.7325587
F40.7325587
tp1249
I13
s(F40.760411
F40.760411
tp1250
I8
s(F40.7546572
F40.7546572
tp1251
I8
s(F40.7284285
F40.7284285
tp1252
I11
s(F40.7339733
F40.7339733
tp1253
I8
s(F40.7438612
F40.7438612
tp1254
I4
s(F40.7222823
F40.7222823
tp1255
I2
s(F40.7202397
F40.7202397
tp1256
I3
s(F40.7144902
F40.7144902
tp1257
I1
s(F40.695975
F40.695975
tp1258
I2
s(F40.75604209999999
F40.75604209999999
tp1259
I5
s(F40.760365
F40.760365
tp1260
I1
s(F40.756132
F40.756132
tp1261
I9
s(F40.7288188
F40.7288188
tp1262
I3
s(F40.7658844
F40.7658844
tp1263
I3
s(F40.7164554
F40.7164554
tp1264
I3
s(F40.7191678
F40.7191678
tp1265
I1
s(F40.7188778
F40.7188778
tp1266
I13
s(F40.7384903
F40.7384903
tp1267
I7
s(F40.7677049
F40.7677049
tp1268
I17
s(F40.7176579
F40.7176579
tp1269
I3
s(F40.7460519
F40.7460519
tp1270
I2
s(F40.7554301
F40.7554301
tp1271
I1
s(F40.6946376
F40.6946376
tp1272
I1
s(F40.71691209999999
F40.71691209999999
tp1273
I4
s(F40.7366418
F40.7366418
tp1274
I2
s(F40.7445727
F40.7445727
tp1275
I11
s(F40.7671295
F40.7671295
tp1276
I7
s(F40.7452895
F40.7452895
tp1277
I4
s(F40.7528183
F40.7528183
tp1278
I1
s(F40.74406099999999
F40.74406099999999
tp1279
I3
s(F40.7458471
F40.7458471
tp1280
I17
s(F40.7212866
F40.7212866
tp1281
I4
s(F40.7627274
F40.7627274
tp1282
I11
s(F40.7216799
F40.7216799
tp1283
I5
s(F40.6882503
F40.6882503
tp1284
I1
s(F40.7104074
F40.7104074
tp1285
I7
s(F40.7408676
F40.7408676
tp1286
I4
s(F40.690694
F40.690694
tp1287
I1
s(F40.7353013
F40.7353013
tp1288
I5
s(F40.7169748
F40.7169748
tp1289
I5
s(F40.7561475
F40.7561475
tp1290
I5
s(F40.7623979
F40.7623979
tp1291
I2
s(F40.7260554
F40.7260554
tp1292
I13
s(F40.7338178
F40.7338178
tp1293
I17
s(F40.680798
F40.680798
tp1294
I3
s(F40.7244017
F40.7244017
tp1295
I10
s(F40.6866889
F40.6866889
tp1296
I1
s(F40.7503293
F40.7503293
tp1297
I14
s(F40.7047649
F40.7047649
tp1298
I1
s(F40.7449875
F40.7449875
tp1299
I4
s(F40.70067290000001
F40.70067290000001
tp1300
I2
s(F40.7241833
F40.7241833
tp1301
I12
s(F40.7242289
F40.7242289
tp1302
I3
s(F40.7683644
F40.7683644
tp1303
I5
s(F40.7159177
F40.7159177
tp1304
I12
s(F40.6915996
F40.6915996
tp1305
I1
s(F40.7110244
F40.7110244
tp1306
I23
s(F40.7634309
F40.7634309
tp1307
I8
s(F40.6977702
F40.6977702
tp1308
I1
s(F40.6850938
F40.6850938
tp1309
I6
s(F40.72699859999999
F40.72699859999999
tp1310
I18
s(F40.7336421
F40.7336421
tp1311
I10
s(F40.6974571
F40.6974571
tp1312
I3
s(F40.761038
F40.761038
tp1313
I8
s(F40.7114194
F40.7114194
tp1314
I3
s(F40.7300768
F40.7300768
tp1315
I2
s(F40.73424199999999
F40.73424199999999
tp1316
I4
s(F40.7084197
F40.7084197
tp1317
I2
s(F40.6951155
F40.6951155
tp1318
I2
s(F40.7051474
F40.7051474
tp1319
I1
s(F40.71286509999999
F40.71286509999999
tp1320
I5
s(F40.7510839
F40.7510839
tp1321
I2
s(F40.7390762
F40.7390762
tp1322
I10
s(F40.735378
F40.735378
tp1323
I3
s(F40.7274453
F40.7274453
tp1324
I2
s(F40.7472932
F40.7472932
tp1325
I1
s(F40.6932676
F40.6932676
tp1326
I3
s(F40.7460445
F40.7460445
tp1327
I20
s(F40.7507577
F40.7507577
tp1328
I9
s(F40.7666517
F40.7666517
tp1329
I4
s(F40.7592009
F40.7592009
tp1330
I6
s(F40.72842139999999
F40.72842139999999
tp1331
I11
s(F40.7373119
F40.7373119
tp1332
I16
s(F40.69952380000001
F40.69952380000001
tp1333
I22
s(F40.7169694
F40.7169694
tp1334
I1
s(F40.7161787
F40.7161787
tp1335
I1
s(F40.7112346
F40.7112346
tp1336
I4
s(F40.7252342
F40.7252342
tp1337
I11
s(F40.71231
F40.71231
tp1338
I2
s(F40.7190525
F40.7190525
tp1339
I3
s(F40.7515477
F40.7515477
tp1340
I24
s(F40.7434679
F40.7434679
tp1341
I3
s(F40.7421167
F40.7421167
tp1342
I8
s(F40.7452994
F40.7452994
tp1343
I10
s(F40.7347899
F40.7347899
tp1344
I3
s(F40.7143229
F40.7143229
tp1345
I3
s(F40.7160405
F40.7160405
tp1346
I6
s(F40.68902050000001
F40.68902050000001
tp1347
I1
s(F40.7641748
F40.7641748
tp1348
I9
s(F40.7154059
F40.7154059
tp1349
I10
s(F40.7366609
F40.7366609
tp1350
I9
s(F40.689456
F40.689456
tp1351
I6
s(F40.7597239
F40.7597239
tp1352
I6
s(F40.6961923
F40.6961923
tp1353
I4
s(F40.718279
F40.718279
tp1354
I1
s(F40.7512823
F40.7512823
tp1355
I2
s(F40.6902715
F40.6902715
tp1356
I1
s(F40.70316469999999
F40.70316469999999
tp1357
I18
s(F40.692097
F40.692097
tp1358
I1
s(F40.7228285
F40.7228285
tp1359
I6
s(F40.7614492
F40.7614492
tp1360
I1
s(F40.7445263
F40.7445263
tp1361
I11
s(F40.7408231
F40.7408231
tp1362
I5
s(F40.7515107
F40.7515107
tp1363
I22
s(F40.7031645
F40.7031645
tp1364
I1
s(F40.7042279
F40.7042279
tp1365
I8
s(F40.7318564
F40.7318564
tp1366
I2
s(F40.7446557
F40.7446557
tp1367
I2
s(F40.7647357
F40.7647357
tp1368
I6
s(F40.7012078
F40.7012078
tp1369
I4
s(F40.7359491
F40.7359491
tp1370
I1
s(F40.7353635
F40.7353635
tp1371
I2
s(F40.7351977
F40.7351977
tp1372
I7
s(F40.710954
F40.710954
tp1373
I15
s(F40.7522003
F40.7522003
tp1374
I10
s(F40.7591092
F40.7591092
tp1375
I9
s(F40.7410673
F40.7410673
tp1376
I1
s(F40.7531026
F40.7531026
tp1377
I1
s(F40.6976915
F40.6976915
tp1378
I3
s(F40.7483075
F40.7483075
tp1379
I7
s(F40.7573414
F40.7573414
tp1380
I1
s(F40.72301239999999
F40.72301239999999
tp1381
I1
s(F40.7039531
F40.7039531
tp1382
I18
s(F40.704569
F40.704569
tp1383
I7
s(F40.7421137
F40.7421137
tp1384
I5
s(F40.72076209999999
F40.72076209999999
tp1385
I5
s(F40.6937808
F40.6937808
tp1386
I2
s(F40.7057072
F40.7057072
tp1387
I16
s(F40.7601533
F40.7601533
tp1388
I5
s(F40.744452
F40.744452
tp1389
I5
s(F40.7165482
F40.7165482
tp1390
I1
s(F40.7729785
F40.7729785
tp1391
I9
s(F40.7323041
F40.7323041
tp1392
I37
s(F40.7365564
F40.7365564
tp1393
I15
s(F40.70786349999999
F40.70786349999999
tp1394
I2
s(F40.7584312
F40.7584312
tp1395
I4
s(F40.7371049
F40.7371049
tp1396
I2
s(F40.724104
F40.724104
tp1397
I16
s(F40.7654858
F40.7654858
tp1398
I8
s(F40.7582531
F40.7582531
tp1399
I7
s(F40.7028166
F40.7028166
tp1400
I5
s(F40.7250603
F40.7250603
tp1401
I7
s(F40.7394962
F40.7394962
tp1402
I1
s(F40.7238833
F40.7238833
tp1403
I1
s(F40.7586615
F40.7586615
tp1404
I5
s(F40.753623
F40.753623
tp1405
I7
s(F40.7306684
F40.7306684
tp1406
I9
s(F40.75658689999999
F40.75658689999999
tp1407
I9
s(F40.7186486
F40.7186486
tp1408
I1
s(F40.7213771
F40.7213771
tp1409
I1
s(F40.72068489999999
F40.72068489999999
tp1410
I2
s(F40.7176148
F40.7176148
tp1411
I1
s(F40.7297042
F40.7297042
tp1412
I8
s(F40.7274854
F40.7274854
tp1413
I10
s(F40.7236065
F40.7236065
tp1414
I4
s(F40.7427962
F40.7427962
tp1415
I10
s(F40.75141199999999
F40.75141199999999
tp1416
I39
s(F40.7216688
F40.7216688
tp1417
I2
s(F40.7139192
F40.7139192
tp1418
I2
s(F40.6908
F40.6908
tp1419
I1
s(F40.7298554
F40.7298554
tp1420
I29
s(F40.7615555
F40.7615555
tp1421
I2
s(F40.7409463
F40.7409463
tp1422
I19
s(F40.7705788
F40.7705788
tp1423
I5
s(F40.6853983
F40.6853983
tp1424
I2
s(F40.72273029999999
F40.72273029999999
tp1425
I1
s(F40.7180228
F40.7180228
tp1426
I11
s(F40.73258020000001
F40.73258020000001
tp1427
I8
s(F40.7121347
F40.7121347
tp1428
I1
s(F40.7616238
F40.7616238
tp1429
I3
s(F40.713256
F40.713256
tp1430
I10
s(F40.7616436
F40.7616436
tp1431
I6
s(F40.7166902
F40.7166902
tp1432
I5
s(F40.7248998
F40.7248998
tp1433
I1
s(F40.7545485
F40.7545485
tp1434
I1
s(F40.7398305
F40.7398305
tp1435
I1
s(F40.7187288
F40.7187288
tp1436
I5
s(F40.7501862
F40.7501862
tp1437
I8
s(F40.7463913
F40.7463913
tp1438
I10
s(F40.7388368
F40.7388368
tp1439
I2
s(F40.7069205
F40.7069205
tp1440
I5
s(F40.7389404
F40.7389404
tp1441
I20
s(F40.7154338
F40.7154338
tp1442
I11
s(F40.6935838
F40.6935838
tp1443
I3
s(F40.7140627
F40.7140627
tp1444
I3
s(F40.7506991
F40.7506991
tp1445
I3
s(F40.706915
F40.706915
tp1446
I6
s(F40.6999256
F40.6999256
tp1447
I17
s(F40.7245817
F40.7245817
tp1448
I13
s(F40.7715222
F40.7715222
tp1449
I9
s(F40.6903475
F40.6903475
tp1450
I2
s(F40.7393793
F40.7393793
tp1451
I14
s(F40.7095449
F40.7095449
tp1452
I8
s(F40.7308188
F40.7308188
tp1453
I3
s(F40.7313768
F40.7313768
tp1454
I15
s(F40.7129454
F40.7129454
tp1455
I27
s(F40.7101671
F40.7101671
tp1456
I11
s(F40.7305773
F40.7305773
tp1457
I3
s(F40.7125622
F40.7125622
tp1458
I4
s(F40.7599773
F40.7599773
tp1459
I12
s(F40.7175217
F40.7175217
tp1460
I9
s(F40.7157431
F40.7157431
tp1461
I1
s(F40.7340616
F40.7340616
tp1462
I4
s(F40.6978754
F40.6978754
tp1463
I7
s(F40.71787150000001
F40.71787150000001
tp1464
I3
s(F40.7490539
F40.7490539
tp1465
I26
s(F40.735374
F40.735374
tp1466
I1
s(F40.7476328
F40.7476328
tp1467
I2
s(F40.73069690000001
F40.73069690000001
tp1468
I2
s(F40.7478382
F40.7478382
tp1469
I10
s(F40.7441722
F40.7441722
tp1470
I4
s(F40.7668893
F40.7668893
tp1471
I2
s(F40.7242595
F40.7242595
tp1472
I29
s(F40.7157998
F40.7157998
tp1473
I6
s(F40.7184566
F40.7184566
tp1474
I1
s(F40.7466783
F40.7466783
tp1475
I3
s(F40.7300043
F40.7300043
tp1476
I4
s(F40.716341
F40.716341
tp1477
I8
s(F40.7204318
F40.7204318
tp1478
I3
s(F40.73924299999999
F40.73924299999999
tp1479
I4
s(F40.719393
F40.719393
tp1480
I3
s(F40.7015283
F40.7015283
tp1481
I4
s(F40.71595629999999
F40.71595629999999
tp1482
I1
s(F40.6959117
F40.6959117
tp1483
I1
s(F40.7375376
F40.7375376
tp1484
I1
s(F40.7439004
F40.7439004
tp1485
I15
s(F40.6961091
F40.6961091
tp1486
I1
s(F40.7240156
F40.7240156
tp1487
I6
s(F40.7071433
F40.7071433
tp1488
I1
s(F40.7191152
F40.7191152
tp1489
I2
s(F40.7596702
F40.7596702
tp1490
I5
s(F40.7440152
F40.7440152
tp1491
I5
s(F40.7252617
F40.7252617
tp1492
I11
s(F40.72967860000001
F40.72967860000001
tp1493
I2
s(F40.732209
F40.732209
tp1494
I13
s(F40.6997882
F40.6997882
tp1495
I5
s(F40.7237741
F40.7237741
tp1496
I1
s(F40.7131335
F40.7131335
tp1497
I10
s(F40.7526943
F40.7526943
tp1498
I8
s(F40.7397731
F40.7397731
tp1499
I3
s(F40.7173764
F40.7173764
tp1500
I3
s(F40.7281978
F40.7281978
tp1501
I10
s(F40.7295312
F40.7295312
tp1502
I14
s(F40.7636463
F40.7636463
tp1503
I6
s(F40.7136622
F40.7136622
tp1504
I46
s(F40.7304394
F40.7304394
tp1505
I18
s(F40.7190465
F40.7190465
tp1506
I3
s(F40.7415346
F40.7415346
tp1507
I7
s(F40.7385414
F40.7385414
tp1508
I2
s(F40.7445452
F40.7445452
tp1509
I2
s(F40.7353236
F40.7353236
tp1510
I6
s(F40.7364446
F40.7364446
tp1511
I11
s(F40.7321706
F40.7321706
tp1512
I3
s(F40.7467441
F40.7467441
tp1513
I15
s(F40.748468
F40.748468
tp1514
I4
s(F40.7055954
F40.7055954
tp1515
I21
s(F40.7319393
F40.7319393
tp1516
I2
s(F40.7705339
F40.7705339
tp1517
I6
s(F40.6984191
F40.6984191
tp1518
I8
s(F40.7221373
F40.7221373
tp1519
I3
s(F40.75961969999999
F40.75961969999999
tp1520
I1
s(F40.719867
F40.719867
tp1521
I1
s(F40.72372290000001
F40.72372290000001
tp1522
I45
s(F40.7441027
F40.7441027
tp1523
I4
s(F40.7067555
F40.7067555
tp1524
I2
s(F40.743985
F40.743985
tp1525
I8
s(F40.7416627
F40.7416627
tp1526
I23
s(F40.6963727
F40.6963727
tp1527
I10
s(F40.761667
F40.761667
tp1528
I4
s(F40.6996384
F40.6996384
tp1529
I5
s(F40.7071326
F40.7071326
tp1530
I6
s(F40.7130457
F40.7130457
tp1531
I1
s(F40.7161623
F40.7161623
tp1532
I1
s(F40.7382784
F40.7382784
tp1533
I5
s(F40.7120794
F40.7120794
tp1534
I9
s(F40.7047018
F40.7047018
tp1535
I36
s(F40.7616198
F40.7616198
tp1536
I3
s(F40.7182605
F40.7182605
tp1537
I2
s(F40.7140084
F40.7140084
tp1538
I2
s(F40.7322213
F40.7322213
tp1539
I58
s(F40.7539901
F40.7539901
tp1540
I1
s(F40.7225629
F40.7225629
tp1541
I2
s(F40.6930667
F40.6930667
tp1542
I5
s(F40.6887901
F40.6887901
tp1543
I2
s(F40.7360172
F40.7360172
tp1544
I2
s(F40.7393956
F40.7393956
tp1545
I13
s(F40.7098694
F40.7098694
tp1546
I5
s(F40.7148876
F40.7148876
tp1547
I5
s(F40.71421220000001
F40.71421220000001
tp1548
I3
s(F40.742223
F40.742223
tp1549
I5
s(F40.7641329
F40.7641329
tp1550
I2
s(F40.7537182
F40.7537182
tp1551
I11
s(F40.7240949
F40.7240949
tp1552
I5
s(F40.6874298
F40.6874298
tp1553
I3
s(F40.7364484
F40.7364484
tp1554
I6
s(F40.741809
F40.741809
tp1555
I10
s(F40.7639192
F40.7639192
tp1556
I9
s(F40.6919015
F40.6919015
tp1557
I4
s(F40.7504841
F40.7504841
tp1558
I4
s(F40.7223437
F40.7223437
tp1559
I28
s(F40.7514591
F40.7514591
tp1560
I1
s(F40.7391558
F40.7391558
tp1561
I47
s(F40.7022261
F40.7022261
tp1562
I11
s(F40.7030934
F40.7030934
tp1563
I3
s(F40.718197
F40.718197
tp1564
I6
s(F40.7704272
F40.7704272
tp1565
I7
s(F40.7194723
F40.7194723
tp1566
I1
s(F40.744717
F40.744717
tp1567
I7
s(F40.7132966
F40.7132966
tp1568
I4
s(F40.7521936
F40.7521936
tp1569
I17
s(F40.7132199
F40.7132199
tp1570
I1
s(F40.7551652
F40.7551652
tp1571
I1
s(F40.7416056
F40.7416056
tp1572
I17
s(F40.689506
F40.689506
tp1573
I5
s(F40.7593822
F40.7593822
tp1574
I4
s(F40.6869349
F40.6869349
tp1575
I1
s(F40.712574
F40.712574
tp1576
I2
s(F40.7121922
F40.7121922
tp1577
I1
s(F40.7529461
F40.7529461
tp1578
I9
s(F40.7236019
F40.7236019
tp1579
I3
s(F40.7087857
F40.7087857
tp1580
I3
s(F40.7375462
F40.7375462
tp1581
I1
s(F40.7055413
F40.7055413
tp1582
I2
s(F40.7149347
F40.7149347
tp1583
I2
s(F40.7362659
F40.7362659
tp1584
I9
s(F40.76921230000001
F40.76921230000001
tp1585
I8
s(F40.7577598
F40.7577598
tp1586
I2
s(F40.7502599
F40.7502599
tp1587
I2
s(F40.7169525
F40.7169525
tp1588
I2
s(F40.715583
F40.715583
tp1589
I8
s(F40.7036502
F40.7036502
tp1590
I17
s(F40.7193492
F40.7193492
tp1591
I8
s(F40.6878743
F40.6878743
tp1592
I2
s(F40.754915
F40.754915
tp1593
I13
s(F40.7100664
F40.7100664
tp1594
I2
s(F40.7160212
F40.7160212
tp1595
I8
s(F40.7608476
F40.7608476
tp1596
I5
s(F40.7238016
F40.7238016
tp1597
I1
s(F40.6917124
F40.6917124
tp1598
I9
s(F40.759087
F40.759087
tp1599
I8
s(F40.7628806
F40.7628806
tp1600
I1
s(F40.742348
F40.742348
tp1601
I9
s(F40.75597740000001
F40.75597740000001
tp1602
I6
s(F40.718295
F40.718295
tp1603
I2
s(F40.758376
F40.758376
tp1604
I3
s(F40.7051717
F40.7051717
tp1605
I9
s(F40.7472675
F40.7472675
tp1606
I5
s(F40.7090989
F40.7090989
tp1607
I11
s(F40.6910272
F40.6910272
tp1608
I2
s(F40.7263747
F40.7263747
tp1609
I7
s(F40.7325835
F40.7325835
tp1610
I1
s(F40.7355513
F40.7355513
tp1611
I3
s(F40.7230414
F40.7230414
tp1612
I1
s(F40.717436
F40.717436
tp1613
I7
s(F40.7555152
F40.7555152
tp1614
I3
s(F40.7589496
F40.7589496
tp1615
I4
s(F40.6884464
F40.6884464
tp1616
I1
s(F40.7344163
F40.7344163
tp1617
I27
s(F40.7542815
F40.7542815
tp1618
I1
s(F40.6937821
F40.6937821
tp1619
I8
s(F40.7607333
F40.7607333
tp1620
I6
s(F40.7197971
F40.7197971
tp1621
I4
s(F40.7042066
F40.7042066
tp1622
I3
s(F40.759791
F40.759791
tp1623
I2
s(F40.7182589
F40.7182589
tp1624
I8
s(F40.7310465
F40.7310465
tp1625
I55
s(F40.6956898
F40.6956898
tp1626
I1
s(F40.7617278
F40.7617278
tp1627
I7
s(F40.7298646
F40.7298646
tp1628
I8
s(F40.7297446
F40.7297446
tp1629
I2
s(F40.7025739
F40.7025739
tp1630
I5
s(F40.6916786
F40.6916786
tp1631
I1
s(F40.75575449999999
F40.75575449999999
tp1632
I1
s(F40.7078255
F40.7078255
tp1633
I4
s(F40.7541333
F40.7541333
tp1634
I2
s(F40.7201919
F40.7201919
tp1635
I6
s(F40.7423132
F40.7423132
tp1636
I32
s(F40.70996
F40.70996
tp1637
I5
s(F40.7346736
F40.7346736
tp1638
I5
s(F40.7250808
F40.7250808
tp1639
I4
s(F40.7214767
F40.7214767
tp1640
I25
s(F40.7072318
F40.7072318
tp1641
I6
s(F40.7408679
F40.7408679
tp1642
I1
s(F40.7156061
F40.7156061
tp1643
I1
s(F40.7297528
F40.7297528
tp1644
I20
s(F40.689631
F40.689631
tp1645
I6
s(F40.7532743
F40.7532743
tp1646
I1
s(F40.747893
F40.747893
tp1647
I7
s(F40.7345569
F40.7345569
tp1648
I19
s(F40.71944999999999
F40.71944999999999
tp1649
I4
s(F40.733896
F40.733896
tp1650
I6
s(F40.7429109
F40.7429109
tp1651
I1
s(F40.7691556
F40.7691556
tp1652
I12
s(F40.7287453
F40.7287453
tp1653
I3
s(F40.7387014
F40.7387014
tp1654
I7
s(F40.7110333
F40.7110333
tp1655
I1
s(F40.7153562
F40.7153562
tp1656
I2
s(F40.755373
F40.755373
tp1657
I6
s(F40.7164229
F40.7164229
tp1658
I3
s(F40.7188482
F40.7188482
tp1659
I11
s(F40.7334407
F40.7334407
tp1660
I16
s(F40.6978135
F40.6978135
tp1661
I2
s(F40.7164503
F40.7164503
tp1662
I6
s(F40.685047
F40.685047
tp1663
I2
s(F40.7483319
F40.7483319
tp1664
I4
s(F40.7423111
F40.7423111
tp1665
I6
s(F40.737368
F40.737368
tp1666
I2
s(F40.7392683
F40.7392683
tp1667
I3
s(F40.69321
F40.69321
tp1668
I2
s(F40.7576956
F40.7576956
tp1669
I4
s(F40.71586629999999
F40.71586629999999
tp1670
I3
s(F40.7370239
F40.7370239
tp1671
I20
s(F40.7122474
F40.7122474
tp1672
I3
s(F40.7294113
F40.7294113
tp1673
I10
s(F40.7126742
F40.7126742
tp1674
I41
s(F40.7608377
F40.7608377
tp1675
I42
s(F40.697888
F40.697888
tp1676
I2
s(F40.7151705
F40.7151705
tp1677
I9
s(F40.7173018
F40.7173018
tp1678
I1
s(F40.7082699
F40.7082699
tp1679
I5
s(F40.760857
F40.760857
tp1680
I5
s(F40.71761679999999
F40.71761679999999
tp1681
I1
s(F40.7130692
F40.7130692
tp1682
I1
s(F40.732643
F40.732643
tp1683
I19
s(F40.7437815
F40.7437815
tp1684
I5
s(F40.74953379999999
F40.74953379999999
tp1685
I1
s(F40.7358994
F40.7358994
tp1686
I18
s(F40.7142293
F40.7142293
tp1687
I1
s(F40.720195
F40.720195
tp1688
I1
s(F40.7471648
F40.7471648
tp1689
I1
s(F40.7112185
F40.7112185
tp1690
I2
s(F40.7090824
F40.7090824
tp1691
I5
s(F40.7151561
F40.7151561
tp1692
I3
s(F40.7577372
F40.7577372
tp1693
I1
s(F40.729952
F40.729952
tp1694
I16
s(F40.7182566
F40.7182566
tp1695
I6
s(F40.74662319999999
F40.74662319999999
tp1696
I16
s(F40.7337243
F40.7337243
tp1697
I6
s(F40.7438436
F40.7438436
tp1698
I11
s(F40.719153
F40.719153
tp1699
I14
s(F40.72943739999999
F40.72943739999999
tp1700
I15
s(F40.7183105
F40.7183105
tp1701
I8
s(F40.7260624
F40.7260624
tp1702
I9
s(F40.730644
F40.730644
tp1703
I5
s(F40.6947901
F40.6947901
tp1704
I3
s(F40.7040165
F40.7040165
tp1705
I11
s(F40.7025163
F40.7025163
tp1706
I4
s(F40.6880544
F40.6880544
tp1707
I4
s(F40.760708
F40.760708
tp1708
I13
s(F40.7316417
F40.7316417
tp1709
I2
s(F40.7603676
F40.7603676
tp1710
I10
s(F40.7355931
F40.7355931
tp1711
I21
s(F40.7494765
F40.7494765
tp1712
I12
s(F40.754499
F40.754499
tp1713
I10
s(F40.7117066
F40.7117066
tp1714
I8
s(F40.7311726
F40.7311726
tp1715
I17
s(F40.7176202
F40.7176202
tp1716
I3
s(F40.7592631
F40.7592631
tp1717
I8
s(F40.7317894
F40.7317894
tp1718
I11
s(F40.7339699
F40.7339699
tp1719
I15
s(F40.7346503
F40.7346503
tp1720
I1
s(F40.7107195
F40.7107195
tp1721
I2
s(F40.7140097
F40.7140097
tp1722
I1
s(F40.74238709999999
F40.74238709999999
tp1723
I13
s(F40.7398871
F40.7398871
tp1724
I2
s(F40.7311573
F40.7311573
tp1725
I2
s(F40.7504619
F40.7504619
tp1726
I2
s(F40.7395051
F40.7395051
tp1727
I14
s(F40.7019074
F40.7019074
tp1728
I3
s(F40.6895632
F40.6895632
tp1729
I2
s(F40.7290028
F40.7290028
tp1730
I3
s(F40.7431673
F40.7431673
tp1731
I11
s(F40.7484708
F40.7484708
tp1732
I11
s(F40.7057949
F40.7057949
tp1733
I1
s(F40.7358757
F40.7358757
tp1734
I4
s(F40.70984869999999
F40.70984869999999
tp1735
I2
s(F40.760939
F40.760939
tp1736
I3
s(F40.6947867
F40.6947867
tp1737
I1
s(F40.70487430000001
F40.70487430000001
tp1738
I2
s(F40.7447955
F40.7447955
tp1739
I2
s(F40.7376121
F40.7376121
tp1740
I13
s(F40.7155172
F40.7155172
tp1741
I7
s(F40.7114848
F40.7114848
tp1742
I4
s(F40.7175188
F40.7175188
tp1743
I5
s(F40.7277202
F40.7277202
tp1744
I4
s(F40.7622939
F40.7622939
tp1745
I1
s(F40.753554
F40.753554
tp1746
I14
s(F40.7623398
F40.7623398
tp1747
I15
s(F40.7283659
F40.7283659
tp1748
I14
s(F40.7029218
F40.7029218
tp1749
I1
s(F40.703437
F40.703437
tp1750
I1
s(F40.70741719999999
F40.70741719999999
tp1751
I4
s(F40.7684462
F40.7684462
tp1752
I3
s(F40.7175365
F40.7175365
tp1753
I17
s(F40.709634
F40.709634
tp1754
I5
s(F40.7533142
F40.7533142
tp1755
I1
s(F40.7416646
F40.7416646
tp1756
I31
s(F40.7603518
F40.7603518
tp1757
I5
s(F40.7196105
F40.7196105
tp1758
I21
s(F40.7104302
F40.7104302
tp1759
I1
s(F40.7141858
F40.7141858
tp1760
I1
s(F40.74398
F40.74398
tp1761
I4
s(F40.7023898
F40.7023898
tp1762
I9
s(F40.6980042
F40.6980042
tp1763
I3
s(F40.76303
F40.76303
tp1764
I4
s(F40.7633358
F40.7633358
tp1765
I1
s(F40.7711301
F40.7711301
tp1766
I6
s(F40.7479187
F40.7479187
tp1767
I18
s(F40.72182979999999
F40.72182979999999
tp1768
I18
s(F40.7297518
F40.7297518
tp1769
I29
s(F40.7266662
F40.7266662
tp1770
I1
s(F40.7467878
F40.7467878
tp1771
I13
s(F40.71919380000001
F40.71919380000001
tp1772
I2
s(F40.7156727
F40.7156727
tp1773
I14
s(F40.7379049
F40.7379049
tp1774
I20
s(F40.7086717
F40.7086717
tp1775
I6
s(F40.7452343
F40.7452343
tp1776
I7
s(F40.7539373
F40.7539373
tp1777
I1
s(F40.7459988
F40.7459988
tp1778
I5
s(F40.728415
F40.728415
tp1779
I6
s(F40.7162552
F40.7162552
tp1780
I4
s(F40.7022507
F40.7022507
tp1781
I36
s(F40.7583897
F40.7583897
tp1782
I1
s(F40.7322653
F40.7322653
tp1783
I10
s(F40.7476735
F40.7476735
tp1784
I1
s(F40.7476908
F40.7476908
tp1785
I6
s(F40.7123675
F40.7123675
tp1786
I1
s(F40.7255663
F40.7255663
tp1787
I5
s(F40.7097449
F40.7097449
tp1788
I2
s(F40.7191684
F40.7191684
tp1789
I11
s(F40.7368841
F40.7368841
tp1790
I17
s(F40.7485583
F40.7485583
tp1791
I1
s(F40.7523203
F40.7523203
tp1792
I3
s(F40.6957247
F40.6957247
tp1793
I3
s(F40.7187638
F40.7187638
tp1794
I2
s(F40.7357242
F40.7357242
tp1795
I2
s(F40.748982
F40.748982
tp1796
I14
s(F40.7117116
F40.7117116
tp1797
I4
s(F40.7027348
F40.7027348
tp1798
I7
s(F40.710159
F40.710159
tp1799
I13
s(F40.7584654
F40.7584654
tp1800
I1
s(F40.7460245
F40.7460245
tp1801
I1
s(F40.70777810000001
F40.70777810000001
tp1802
I17
s(F40.7067197
F40.7067197
tp1803
I3
s(F40.7016244
F40.7016244
tp1804
I4
s(F40.7216088
F40.7216088
tp1805
I10
s(F40.70731749999999
F40.70731749999999
tp1806
I1
s(F40.7596327
F40.7596327
tp1807
I1
s(F40.7659456
F40.7659456
tp1808
I1
s(F40.6881532
F40.6881532
tp1809
I1
s(F40.7144852
F40.7144852
tp1810
I4
s(F40.7622891
F40.7622891
tp1811
I1
s(F40.7173288
F40.7173288
tp1812
I3
s(F40.7560558
F40.7560558
tp1813
I5
s(F40.7697985
F40.7697985
tp1814
I1
s(F40.689373
F40.689373
tp1815
I3
s(F40.7151186
F40.7151186
tp1816
I21
s(F40.6921742
F40.6921742
tp1817
I2
s(F40.7233555
F40.7233555
tp1818
I8
s(F40.7542034
F40.7542034
tp1819
I1
s(F40.7439587
F40.7439587
tp1820
I5
s(F40.7352184
F40.7352184
tp1821
I8
s(F40.71689680000001
F40.71689680000001
tp1822
I7
s(F40.7381226
F40.7381226
tp1823
I1
s(F40.7628049
F40.7628049
tp1824
I9
s(F40.7204623
F40.7204623
tp1825
I25
s(F40.7353829
F40.7353829
tp1826
I10
s(F40.7374791
F40.7374791
tp1827
I2
s(F40.6802557
F40.6802557
tp1828
I3
s(F40.713468
F40.713468
tp1829
I1
s(F40.748414
F40.748414
tp1830
I13
s(F40.7316756
F40.7316756
tp1831
I13
s(F40.7223802
F40.7223802
tp1832
I28
s(F40.7250371
F40.7250371
tp1833
I5
s(F40.7394098
F40.7394098
tp1834
I3
s(F40.681636
F40.681636
tp1835
I1
s(F40.7197294
F40.7197294
tp1836
I2
s(F40.6914618
F40.6914618
tp1837
I5
s(F40.7248876
F40.7248876
tp1838
I18
s(F40.7281438
F40.7281438
tp1839
I7
s(F40.6903327
F40.6903327
tp1840
I1
s(F40.7158102
F40.7158102
tp1841
I1
s(F40.74505509999999
F40.74505509999999
tp1842
I3
s(F40.70862380000001
F40.70862380000001
tp1843
I2
s(F40.6920405
F40.6920405
tp1844
I1
s(F40.7564481
F40.7564481
tp1845
I13
s(F40.7270718
F40.7270718
tp1846
I1
s(F40.7220306
F40.7220306
tp1847
I11
s(F40.7279634
F40.7279634
tp1848
I7
s(F40.7232818
F40.7232818
tp1849
I1
s(F40.6882119
F40.6882119
tp1850
I3
s(F40.692196
F40.692196
tp1851
I5
s(F40.7295068
F40.7295068
tp1852
I20
s(F40.7256194
F40.7256194
tp1853
I11
s(F40.7171204
F40.7171204
tp1854
I4
s(F40.7223066
F40.7223066
tp1855
I6
s(F40.7346785
F40.7346785
tp1856
I7
s(F40.70041459999999
F40.70041459999999
tp1857
I16
s(F40.7403905
F40.7403905
tp1858
I3
s(F40.72303549999999
F40.72303549999999
tp1859
I9
s(F40.7107555
F40.7107555
tp1860
I11
s(F40.7142795
F40.7142795
tp1861
I18
s(F40.7605396
F40.7605396
tp1862
I7
s(F40.7410712
F40.7410712
tp1863
I13
s(F40.765924
F40.765924
tp1864
I6
s(F40.7591625
F40.7591625
tp1865
I12
s(F40.682508
F40.682508
tp1866
I1
s(F40.7161811
F40.7161811
tp1867
I3
s(F40.7310008
F40.7310008
tp1868
I16
s(F40.6950649
F40.6950649
tp1869
I4
s(F40.7230063
F40.7230063
tp1870
I27
s(F40.7472826
F40.7472826
tp1871
I11
s(F40.7435057
F40.7435057
tp1872
I22
s(F40.7330556
F40.7330556
tp1873
I6
s(F40.7375374
F40.7375374
tp1874
I1
s(F40.73694649999999
F40.73694649999999
tp1875
I10
s(F40.7351297
F40.7351297
tp1876
I2
s(F40.7597181
F40.7597181
tp1877
I3
s(F40.6900617
F40.6900617
tp1878
I2
s(F40.7536764
F40.7536764
tp1879
I1
s(F40.7402642
F40.7402642
tp1880
I7
s(F40.7304636
F40.7304636
tp1881
I7
s(F40.6919727
F40.6919727
tp1882
I4
s(F40.7489457
F40.7489457
tp1883
I1
s(F40.7078984
F40.7078984
tp1884
I4
s(F40.7247176
F40.7247176
tp1885
I10
s(F40.7251844
F40.7251844
tp1886
I5
s(F40.71691819999999
F40.71691819999999
tp1887
I1
s(F40.6963559
F40.6963559
tp1888
I12
s(F40.7548795
F40.7548795
tp1889
I1
s(F40.7233521
F40.7233521
tp1890
I13
s(F40.7448325
F40.7448325
tp1891
I13
s(F40.7568411
F40.7568411
tp1892
I5
s(F40.7162003
F40.7162003
tp1893
I1
s(F40.7369194
F40.7369194
tp1894
I16
s(F40.7488267
F40.7488267
tp1895
I1
s(F40.7319459
F40.7319459
tp1896
I7
s(F40.754091
F40.754091
tp1897
I5
s(F40.71750300000001
F40.71750300000001
tp1898
I1
s(F40.7421744
F40.7421744
tp1899
I81
s(F40.7253796
F40.7253796
tp1900
I1
s(F40.7096568
F40.7096568
tp1901
I2
s(F40.7178473
F40.7178473
tp1902
I1
s(F40.7124472
F40.7124472
tp1903
I2
s(F40.7006461
F40.7006461
tp1904
I1
s(F40.7179557
F40.7179557
tp1905
I1
s(F40.7156319
F40.7156319
tp1906
I1
s(F40.7291605
F40.7291605
tp1907
I4
s(F40.7205416
F40.7205416
tp1908
I11
s(F40.7597432
F40.7597432
tp1909
I1
s(F40.692884
F40.692884
tp1910
I2
s(F40.7611488
F40.7611488
tp1911
I5
s(F40.7083378
F40.7083378
tp1912
I9
s(F40.7509391
F40.7509391
tp1913
I43
s(F40.72214020000001
F40.72214020000001
tp1914
I10
s(F40.7308067
F40.7308067
tp1915
I44
s(F40.7405702
F40.7405702
tp1916
I7
s(F40.7432206
F40.7432206
tp1917
I12
s(F40.7190769
F40.7190769
tp1918
I5
s(F40.74578
F40.74578
tp1919
I8
s(F40.7278523
F40.7278523
tp1920
I25
s(F40.7314123
F40.7314123
tp1921
I41
s(F40.7386869
F40.7386869
tp1922
I1
s(F40.691416
F40.691416
tp1923
I3
s(F40.76073
F40.76073
tp1924
I22
s(F40.6922242
F40.6922242
tp1925
I11
s(F40.716861
F40.716861
tp1926
I1
s(F40.689673
F40.689673
tp1927
I1
s(F40.7177291
F40.7177291
tp1928
I28
s(F40.6897537
F40.6897537
tp1929
I2
s(F40.7209211
F40.7209211
tp1930
I6
s(F40.7249271
F40.7249271
tp1931
I11
s(F40.7138755
F40.7138755
tp1932
I5
s(F40.72866030000001
F40.72866030000001
tp1933
I10
s(F40.7185459
F40.7185459
tp1934
I4
s(F40.7095335
F40.7095335
tp1935
I1
s(F40.7127261
F40.7127261
tp1936
I1
s(F40.7091939
F40.7091939
tp1937
I3
s.