ccollections
defaultdict
p0
(c__builtin__
int
p1
tp2
Rp3
(F-73.9864836
F40.7566969
tp4
I7
s(F-73.9842819
F40.7152659
tp5
I8
s(F-73.9819732
F40.7456774
tp6
I15
s(F-73.9743637
F40.75652849999999
tp7
I1
s(F-73.9895975
F40.6879879
tp8
I1
s(F-73.98495230000002
F40.7363627
tp9
I5
s(F-73.9883389
F40.7541333
tp10
I2
s(F-74.0036622
F40.7055954
tp11
I31
s(F-73.9807615
F40.7338178
tp12
I15
s(F-74.0080904
F40.7393226
tp13
I6
s(F-74.0041463
F40.7381335
tp14
I20
s(F-73.98266509999999
F40.7162422
tp15
I10
s(F-73.9994363
F40.7186601
tp16
I2
s(F-73.9998422
F40.7434215
tp17
I24
s(F-73.9945869
F40.7346736
tp18
I4
s(F-73.9865657
F40.7015283
tp19
I4
s(F-73.9869051
F40.7543392
tp20
I17
s(F-73.9784983
F40.7342438
tp21
I3
s(F-73.9828809
F40.7633876
tp22
I3
s(F-73.9717139
F40.7504841
tp23
I7
s(F-73.97143299999999
F40.68606399999999
tp24
I1
s(F-73.98984639999999
F40.7334989
tp25
I18
s(F-73.9842575
F40.6937501
tp26
I2
s(F-73.9914261
F40.743985
tp27
I17
s(F-73.974437
F40.725895
tp28
I3
s(F-73.96109299999999
F40.694011
tp29
I3
s(F-73.98982409999999
F40.6903853
tp30
I2
s(F-73.9909558
F40.7339699
tp31
I16
s(F-74.01008630000001
F40.7339577
tp32
I1
s(F-73.995003
F40.7603128
tp33
I12
s(F-74.0113686
F40.7149101
tp34
I11
s(F-73.9618801
F40.69821839999999
tp35
I2
s(F-73.9795093
F40.6898857
tp36
I1
s(F-73.9943213
F40.7321706
tp37
I4
s(F-73.9775951
F40.7132199
tp38
I3
s(F-73.9941303
F40.7417739
tp39
I21
s(F-73.9766362
F40.7271073
tp40
I1
s(F-74.0096945
F40.7149514
tp41
I6
s(F-73.9804331
F40.7385414
tp42
I6
s(F-73.9869157
F40.7452043
tp43
I12
s(F-73.9968432
F40.737368
tp44
I4
s(F-73.9834307
F40.7139224
tp45
I1
s(F-73.97100510000001
F40.758376
tp46
I1
s(F-73.9822729
F40.7169748
tp47
I2
s(F-74.0048228
F40.7353236
tp48
I8
s(F-73.9865631
F40.7616616
tp49
I2
s(F-73.9873061
F40.7446813
tp50
I6
s(F-73.9842669
F40.6936063
tp51
I11
s(F-74.0011067
F40.7365117
tp52
I3
s(F-74.00923039999999
F40.7155172
tp53
I7
s(F-73.9923529
F40.7690347
tp54
I3
s(F-73.9989763
F40.7446311
tp55
I26
s(F-73.9857531
F40.726961
tp56
I7
s(F-73.9872938
F40.6922242
tp57
I4
s(F-74.0022828
F40.7149247
tp58
I4
s(F-74.00879479999999
F40.7071326
tp59
I5
s(F-74.0088569
F40.70487430000001
tp60
I3
s(F-73.9970975
F40.7472041
tp61
I31
s(F-73.98442039999999
F40.6902937
tp62
I1
s(F-73.9829362
F40.6997255
tp63
I3
s(F-73.99395249999999
F40.7515107
tp64
I23
s(F-73.97235979999999
F40.6859561
tp65
I1
s(F-73.9597004
F40.7586615
tp66
I6
s(F-73.9806996
F40.7121586
tp67
I3
s(F-73.9950216
F40.7398526
tp68
I16
s(F-74.006447
F40.73941
tp69
I19
s(F-73.9867251
F40.7159115
tp70
I6
s(F-73.9982757
F40.735378
tp71
I5
s(F-74.0173228
F40.7084197
tp72
I1
s(F-73.9727274
F40.6875255
tp73
I2
s(F-74.0071328
F40.718197
tp74
I5
s(F-73.98878920000001
F40.7535205
tp75
I1
s(F-73.99459449999999
F40.7396716
tp76
I15
s(F-74.0055848
F40.71455820000001
tp77
I8
s(F-74.0140411
F40.704569
tp78
I3
s(F-74.0001391
F40.7162072
tp79
I3
s(F-73.98775400000001
F40.7440656
tp80
I1
s(F-73.9777091
F40.7251844
tp81
I4
s(F-74.0136946
F40.7153079
tp82
I37
s(F-73.9931345
F40.7278604
tp83
I11
s(F-73.9742651
F40.6855142
tp84
I2
s(F-73.9728561
F40.7616198
tp85
I1
s(F-73.9778018
F40.7521624
tp86
I3
s(F-73.9952986
F40.7496747
tp87
I17
s(F-73.9849673
F40.7379132
tp88
I11
s(F-73.9856552
F40.7179557
tp89
I2
s(F-73.9911406
F40.6963727
tp90
I7
s(F-73.99744059999999
F40.7140084
tp91
I1
s(F-73.9835512
F40.73424199999999
tp92
I3
s(F-74.01590379999999
F40.70777810000001
tp93
I17
s(F-73.9940357
F40.7565386
tp94
I11
s(F-73.9831398
F40.7553129
tp95
I2
s(F-73.9832613
F40.7166546
tp96
I2
s(F-73.9842553
F40.7151561
tp97
I5
s(F-73.97962439999999
F40.7353635
tp98
I6
s(F-73.9859207
F40.7310008
tp99
I10
s(F-74.01430789999999
F40.7022507
tp100
I37
s(F-73.9888773
F40.7322653
tp101
I9
s(F-73.97606499999999
F40.7556152
tp102
I4
s(F-73.98539889999999
F40.75451169999999
tp103
I2
s(F-74.00044489999999
F40.7287995
tp104
I3
s(F-73.9908947
F40.7576927
tp105
I15
s(F-73.99801479999999
F40.7329396
tp106
I4
s(F-73.98174449999999
F40.7671293
tp107
I7
s(F-73.9813552
F40.7586456
tp108
I3
s(F-73.9813051
F40.7413335
tp109
I1
s(F-73.9954485
F40.7392683
tp110
I17
s(F-73.9632385
F40.71691209999999
tp111
I2
s(F-73.9833994
F40.7532743
tp112
I1
s(F-73.9984832
F40.7452994
tp113
I10
s(F-74.01159129999999
F40.7042279
tp114
I9
s(F-73.98404169999999
F40.7155131
tp115
I3
s(F-74.00249269999999
F40.7608377
tp116
I53
s(F-73.9754359
F40.7329583
tp117
I8
s(F-73.9846579
F40.7107301
tp118
I1
s(F-73.97279859999999
F40.7525905
tp119
I4
s(F-73.9726994
F40.759087
tp120
I2
s(F-73.9634651
F40.7186486
tp121
I1
s(F-73.9966529
F40.7478166
tp122
I9
s(F-73.9850687
F40.75858059999999
tp123
I1
s(F-74.0017672
F40.7078255
tp124
I2
s(F-73.98331189999999
F40.7149751
tp125
I11
s(F-73.99186739999999
F40.7441722
tp126
I12
s(F-74.0091374
F40.7147
tp127
I3
s(F-73.98934799999999
F40.7423111
tp128
I12
s(F-73.9977744
F40.7119764
tp129
I7
s(F-73.9780283
F40.7294093
tp130
I1
s(F-73.9781691
F40.7416321
tp131
I9
s(F-73.9876848
F40.7382784
tp132
I4
s(F-74.00346069999999
F40.7269556
tp133
I24
s(F-73.9832756
F40.7185459
tp134
I6
s(F-73.9862721
F40.7222756
tp135
I8
s(F-74.0064141
F40.7495348
tp136
I2
s(F-73.9991252
F40.731638
tp137
I4
s(F-73.98768869999999
F40.7325835
tp138
I1
s(F-73.9941381
F40.71075219999999
tp139
I3
s(F-73.97651619999999
F40.7549787
tp140
I6
s(F-73.98178089999999
F40.728415
tp141
I4
s(F-73.9789843
F40.7501862
tp142
I5
s(F-73.98753669999999
F40.7521773
tp143
I3
s(F-74.0088657
F40.7274661
tp144
I10
s(F-73.9905199
F40.7460245
tp145
I2
s(F-73.97250609999999
F40.7590031
tp146
I1
s(F-74.0073345
F40.7273316
tp147
I14
s(F-73.97620979999999
F40.6852898
tp148
I7
s(F-74.0048388
F40.709634
tp149
I3
s(F-73.9956435
F40.7441027
tp150
I4
s(F-73.9837229
F40.7604566
tp151
I2
s(F-73.97270859999999
F40.6874298
tp152
I2
s(F-74.0050945
F40.7109834
tp153
I1
s(F-73.9933075
F40.7223802
tp154
I23
s(F-73.9937368
F40.7564116
tp155
I5
s(F-74.0028203
F40.7336089
tp156
I1
s(F-73.989893
F40.7255879
tp157
I18
s(F-73.9687302
F40.6840185
tp158
I1
s(F-74.0026489
F40.7142795
tp159
I18
s(F-73.992925
F40.7145826
tp160
I17
s(F-73.9908286
F40.7242997
tp161
I21
s(F-73.9913464
F40.7602309
tp162
I14
s(F-73.99436829999999
F40.71572760000001
tp163
I20
s(F-74.00546229999999
F40.7409804
tp164
I6
s(F-73.99955109999999
F40.7336342
tp165
I11
s(F-74.0140093
F40.7019074
tp166
I3
s(F-73.9878322
F40.7506991
tp167
I3
s(F-73.9760699
F40.7514591
tp168
I2
s(F-74.00774990000001
F40.74750590000001
tp169
I7
s(F-73.9853714
F40.7357748
tp170
I2
s(F-74.00644009999999
F40.7190683
tp171
I8
s(F-73.9785259
F40.7368841
tp172
I16
s(F-73.9904231
F40.7665562
tp173
I9
s(F-73.98749480000001
F40.7044626
tp174
I2
s(F-73.9871454
F40.714265
tp175
I10
s(F-74.0036468
F40.7236878
tp176
I5
s(F-74.0094839
F40.7045482
tp177
I2
s(F-73.9557942
F40.6818738
tp178
I1
s(F-73.9955166
F40.733438
tp179
I13
s(F-73.9742449
F40.7370239
tp180
I15
s(F-73.98896169999999
F40.736518
tp181
I26
s(F-73.9835787
F40.74391139999999
tp182
I4
s(F-73.9961458
F40.7434267
tp183
I2
s(F-73.978681
F40.68372249999999
tp184
I1
s(F-73.9754002
F40.7494765
tp185
I6
s(F-73.9822429
F40.6958738
tp186
I1
s(F-73.9933645
F40.7472392
tp187
I4
s(F-73.9836229
F40.7555152
tp188
I4
s(F-73.9871709
F40.7006461
tp189
I4
s(F-73.9973
F40.713468
tp190
I2
s(F-73.9894966
F40.7678074
tp191
I7
s(F-74.0055397
F40.7387544
tp192
I1
s(F-74.0079591
F40.723669
tp193
I1
s(F-73.9644351
F40.7124472
tp194
I5
s(F-73.9985385
F40.7197971
tp195
I2
s(F-73.9980588
F40.729149
tp196
I14
s(F-73.990129
F40.737002
tp197
I26
s(F-73.9576709
F40.6927713
tp198
I3
s(F-73.9764739
F40.6836827
tp199
I3
s(F-74.0036367
F40.732328
tp200
I8
s(F-73.9680623
F40.6842014
tp201
I3
s(F-73.9640953
F40.7180466
tp202
I7
s(F-73.993723
F40.7671295
tp203
I4
s(F-73.9941666
F40.74102
tp204
I4
s(F-73.9744046
F40.7328493
tp205
I8
s(F-73.986572
F40.6884097
tp206
I2
s(F-74.00445069999999
F40.7227218
tp207
I8
s(F-73.9802219
F40.7515325
tp208
I14
s(F-74.0047623
F40.7052466
tp209
I9
s(F-73.9948484
F40.7502839
tp210
I5
s(F-73.9775763
F40.713292
tp211
I3
s(F-73.9844817
F40.7202397
tp212
I3
s(F-73.9916071
F40.73258020000001
tp213
I5
s(F-74.01268739999999
F40.7025069
tp214
I3
s(F-74.0025987
F40.7390305
tp215
I21
s(F-74.00996959999999
F40.7098258
tp216
I1
s(F-73.986926
F40.7155648
tp217
I4
s(F-73.9886312
F40.6950865
tp218
I2
s(F-73.9675695
F40.7593822
tp219
I6
s(F-74.0006804
F40.7372245
tp220
I1
s(F-74.0008144
F40.71691819999999
tp221
I2
s(F-74.0083003
F40.745538
tp222
I1
s(F-73.9887021
F40.723047
tp223
I2
s(F-73.9792916
F40.7235064
tp224
I2
s(F-73.9876104
F40.7028166
tp225
I1
s(F-73.9887449
F40.6892592
tp226
I10
s(F-73.9799819
F40.7175188
tp227
I2
s(F-73.96772589999999
F40.7520625
tp228
I7
s(F-73.9888347
F40.6962731
tp229
I9
s(F-73.99657789999999
F40.742817
tp230
I16
s(F-73.9762602
F40.71787150000001
tp231
I8
s(F-73.9889522
F40.6961278
tp232
I3
s(F-73.98339670000001
F40.7185829
tp233
I4
s(F-73.9744898
F40.7466783
tp234
I4
s(F-74.0035894
F40.7434679
tp235
I2
s(F-73.971794
F40.7603518
tp236
I1
s(F-74.0100926
F40.7338548
tp237
I1
s(F-73.98745749999999
F40.760411
tp238
I3
s(F-73.97826620000001
F40.7515149
tp239
I5
s(F-73.97846009999999
F40.7366418
tp240
I6
s(F-73.99247869999999
F40.7138755
tp241
I3
s(F-73.9740774
F40.73108819999999
tp242
I1
s(F-73.9894438
F40.7261987
tp243
I15
s(F-73.98911919999999
F40.6921742
tp244
I4
s(F-73.97076129999999
F40.6978135
tp245
I4
s(F-73.98008709999999
F40.7173764
tp246
I1
s(F-73.98609139999999
F40.7376121
tp247
I17
s(F-73.9742436
F40.685404
tp248
I1
s(F-73.9817686
F40.7463913
tp249
I5
s(F-73.9885432
F40.7371049
tp250
I2
s(F-73.9749136
F40.761667
tp251
I6
s(F-73.9782389
F40.72068489999999
tp252
I1
s(F-74.0111699
F40.7154141
tp253
I12
s(F-73.9932895
F40.742223
tp254
I8
s(F-73.98396799999999
F40.7254486
tp255
I6
s(F-74.0100284
F40.72076209999999
tp256
I1
s(F-73.9834055
F40.6920941
tp257
I3
s(F-73.9711433
F40.6895632
tp258
I1
s(F-74.00257859999999
F40.7333645
tp259
I2
s(F-74.00674269999999
F40.7067197
tp260
I2
s(F-73.9784025
F40.7110333
tp261
I1
s(F-73.9933242
F40.7023965
tp262
I2
s(F-73.9788945
F40.6919149
tp263
I3
s(F-73.9718455
F40.6930765
tp264
I1
s(F-73.9843618
F40.7607333
tp265
I10
s(F-73.98225839999999
F40.7573947
tp266
I1
s(F-73.9810102
F40.6899404
tp267
I3
s(F-74.0025294
F40.7397433
tp268
I11
s(F-74.0006571
F40.72218120000001
tp269
I3
s(F-74.0081046
F40.71200320000001
tp270
I14
s(F-73.9610197
F40.7105115
tp271
I6
s(F-73.9771339
F40.6932805
tp272
I2
s(F-74.00081390000001
F40.7117116
tp273
I4
s(F-73.9930364
F40.6974571
tp274
I4
s(F-74.00135279999999
F40.7277202
tp275
I2
s(F-74.0096477
F40.7087857
tp276
I4
s(F-73.9941846
F40.7665144
tp277
I1
s(F-73.9820074
F40.7432476
tp278
I1
s(F-73.98706059999999
F40.7225876
tp279
I4
s(F-73.9592334
F40.7584554
tp280
I3
s(F-73.974516
F40.749117
tp281
I1
s(F-73.9847667
F40.6976141
tp282
I2
s(F-73.9941604
F40.72273029999999
tp283
I4
s(F-73.976187
F40.765924
tp284
I16
s(F-74.00908419999999
F40.7055413
tp285
I3
s(F-73.97618109999999
F40.7440152
tp286
I6
s(F-74.0086122
F40.7333706
tp287
I2
s(F-74.0058823
F40.7116777
tp288
I6
s(F-73.98553129999999
F40.757961
tp289
I1
s(F-73.9983225
F40.7608476
tp290
I11
s(F-74.0116002
F40.7034889
tp291
I2
s(F-74.0170893
F40.7047018
tp292
I37
s(F-73.9910764
F40.6961923
tp293
I2
s(F-73.9955793
F40.7307203
tp294
I47
s(F-74.0082505
F40.73697
tp295
I14
s(F-73.9747897
F40.6979747
tp296
I1
s(F-73.9917043
F40.7597409
tp297
I11
s(F-73.9871666
F40.6949665
tp298
I4
s(F-73.99435079999999
F40.71231
tp299
I3
s(F-74.0008625
F40.74717
tp300
I3
s(F-74.000991
F40.7179404
tp301
I1
s(F-74.01068029999999
F40.7323041
tp302
I28
s(F-73.9949213
F40.7553174
tp303
I6
s(F-74.0027662
F40.7608905
tp304
I18
s(F-73.962851
F40.717271
tp305
I3
s(F-73.99886099999999
F40.7306684
tp306
I14
s(F-74.006457
F40.7387548
tp307
I5
s(F-73.99106789999999
F40.7236019
tp308
I2
s(F-74.01457119999999
F40.7126742
tp309
I36
s(F-74.00986759999999
F40.7058125
tp310
I3
s(F-73.978048
F40.7123675
tp311
I3
s(F-73.9657882
F40.7586253
tp312
I8
s(F-73.9761213
F40.6897537
tp313
I1
s(F-74.0040953
F40.70741719999999
tp314
I4
s(F-73.9917466
F40.7505759
tp315
I1
s(F-73.991489
F40.7210325
tp316
I2
s(F-74.00405769999999
F40.7255273
tp317
I1
s(F-73.9944242
F40.7028357
tp318
I1
s(F-73.99165119999999
F40.7224138
tp319
I15
s(F-73.9806784
F40.7119982
tp320
I2
s(F-73.9851925
F40.7635447
tp321
I10
s(F-73.98795779999999
F40.7239323
tp322
I17
s(F-73.9791944
F40.6934863
tp323
I6
s(F-73.97492249999999
F40.7460519
tp324
I2
s(F-73.9902297
F40.6897561
tp325
I2
s(F-73.9864089
F40.7385268
tp326
I3
s(F-73.982796
F40.75395959999999
tp327
I1
s(F-73.9748194
F40.7559052
tp328
I1
s(F-73.9864107
F40.7459153
tp329
I5
s(F-74.00456249999999
F40.712436
tp330
I29
s(F-73.97856829999999
F40.689837
tp331
I5
s(F-73.9684956
F40.686402
tp332
I1
s(F-73.955486
F40.680195
tp333
I1
s(F-74.00014279999999
F40.7583115
tp334
I3
s(F-73.97187199999999
F40.69321
tp335
I2
s(F-73.97992769999999
F40.7548003
tp336
I12
s(F-73.9856676
F40.73820569999999
tp337
I6
s(F-73.98856940000002
F40.6962629
tp338
I3
s(F-74.00111890000001
F40.71020250000001
tp339
I9
s(F-73.968065
F40.7555055
tp340
I7
s(F-73.9980832
F40.7302955
tp341
I18
s(F-73.9730203
F40.7642919
tp342
I1
s(F-73.97986480000002
F40.7489457
tp343
I1
s(F-73.9997214
F40.7160572
tp344
I2
s(F-74.0021787
F40.7304394
tp345
I15
s(F-73.9779827
F40.7253003
tp346
I7
s(F-73.9866811
F40.7550524
tp347
I3
s(F-73.99934929999999
F40.7393126
tp348
I11
s(F-73.9539729
F40.6820842
tp349
I1
s(F-74.0060901
F40.7120216
tp350
I12
s(F-74.0000828
F40.7329337
tp351
I8
s(F-73.995547
F40.695892
tp352
I2
s(F-73.9843442
F40.7536764
tp353
I1
s(F-73.97125249999999
F40.7511134
tp354
I2
s(F-74.0049708
F40.7416627
tp355
I16
s(F-73.9841062
F40.7614492
tp356
I3
s(F-73.9778768
F40.7312869
tp357
I1
s(F-73.98426979999999
F40.74015869999999
tp358
I6
s(F-73.98901769999999
F40.7423132
tp359
I37
s(F-73.99408
F40.7299926
tp360
I8
s(F-73.9871132
F40.6960476
tp361
I8
s(F-73.9615985
F40.7560558
tp362
I3
s(F-73.98134379999999
F40.7141552
tp363
I1
s(F-73.9945867
F40.7601364
tp364
I15
s(F-74.00291419999999
F40.7340152
tp365
I16
s(F-73.98416999999999
F40.7539102
tp366
I1
s(F-73.9852489
F40.720684
tp367
I12
s(F-74.0083389
F40.7361892
tp368
I12
s(F-74.00562819999999
F40.7507957
tp369
I16
s(F-74.0042429
F40.7333971
tp370
I3
s(F-73.9918083
F40.7384903
tp371
I12
s(F-73.99917909999999
F40.744717
tp372
I14
s(F-74.0040497
F40.7131335
tp373
I12
s(F-73.98364289999999
F40.73268950000001
tp374
I2
s(F-73.9768078
F40.7394426
tp375
I5
s(F-73.978285
F40.7482738
tp376
I1
s(F-73.9850953
F40.6905552
tp377
I1
s(F-74.01065539999999
F40.7325847
tp378
I6
s(F-73.9647875
F40.6830433
tp379
I2
s(F-74.00514489999999
F40.7359572
tp380
I2
s(F-74.00965819999999
F40.7227909
tp381
I1
s(F-73.964801
F40.7599773
tp382
I8
s(F-74.0097722
F40.7221373
tp383
I3
s(F-73.9674461
F40.6961091
tp384
I1
s(F-74.0055137
F40.7057949
tp385
I2
s(F-73.9994521
F40.7236065
tp386
I10
s(F-73.9780145
F40.7531639
tp387
I7
s(F-73.9887921
F40.7339505
tp388
I9
s(F-74.010258
F40.7194488
tp389
I5
s(F-73.9854495
F40.7316417
tp390
I1
s(F-73.9745039
F40.7245939
tp391
I19
s(F-73.98323429999999
F40.7445727
tp392
I5
s(F-73.9885838
F40.7460445
tp393
I16
s(F-74.0116054
F40.7242254
tp394
I19
s(F-73.9877813
F40.7509898
tp395
I6
s(F-73.9912281
F40.7358984
tp396
I5
s(F-74.0048128
F40.7375462
tp397
I1
s(F-73.9952825
F40.769516
tp398
I13
s(F-73.9918604
F40.7264193
tp399
I26
s(F-74.0109403
F40.71629180000001
tp400
I5
s(F-73.99536069999999
F40.7250371
tp401
I5
s(F-73.9855202
F40.7529461
tp402
I6
s(F-73.9881305
F40.7279634
tp403
I6
s(F-74.0098149
F40.7375736
tp404
I1
s(F-73.98502060000001
F40.7137582
tp405
I3
s(F-73.98316299999999
F40.7561475
tp406
I6
s(F-73.9917822
F40.7161623
tp407
I2
s(F-73.9781186
F40.757289
tp408
I1
s(F-74.0030973
F40.7390617
tp409
I1
s(F-73.9899745
F40.7671971
tp410
I8
s(F-73.9790718
F40.7403905
tp411
I2
s(F-74.0061729
F40.7364904
tp412
I5
s(F-73.9820476
F40.7705339
tp413
I10
s(F-73.9900947
F40.695975
tp414
I1
s(F-74.0006554
F40.7208445
tp415
I1
s(F-74.00390089999999
F40.7381366
tp416
I20
s(F-73.9786582
F40.7506361
tp417
I21
s(F-73.9929884
F40.7627314
tp418
I10
s(F-73.9607633
F40.6924179
tp419
I1
s(F-73.97212209999999
F40.7539319
tp420
I4
s(F-73.9821832
F40.6911716
tp421
I1
s(F-74.00616500000001
F40.7053428
tp422
I5
s(F-73.9911174
F40.733201
tp423
I10
s(F-73.9957485
F40.7490539
tp424
I28
s(F-73.9978604
F40.75658689999999
tp425
I6
s(F-73.959271
F40.6867136
tp426
I1
s(F-73.9886174
F40.7592631
tp427
I7
s(F-73.984596
F40.754177
tp428
I6
s(F-74.0067344
F40.713634
tp429
I11
s(F-74.0016081
F40.7249392
tp430
I9
s(F-74.0115385
F40.7143004
tp431
I3
s(F-74.0142757
F40.7045116
tp432
I18
s(F-73.9989751
F40.70856759999999
tp433
I3
s(F-74.0021222
F40.7151705
tp434
I6
s(F-73.9735954
F40.7479187
tp435
I17
s(F-74.008032
F40.7080092
tp436
I1
s(F-73.99999559999999
F40.7346785
tp437
I7
s(F-73.9922789
F40.7252617
tp438
I10
s(F-73.97206
F40.7571719
tp439
I4
s(F-73.9846456
F40.7144902
tp440
I1
s(F-73.9881202
F40.7376989
tp441
I4
s(F-73.98578119999999
F40.7177291
tp442
I14
s(F-73.995001
F40.688915
tp443
I1
s(F-73.97516499999999
F40.7248876
tp444
I21
s(F-74.00001089999999
F40.7434926
tp445
I8
s(F-73.9963437
F40.7380268
tp446
I6
s(F-73.9914682
F40.7317192
tp447
I3
s(F-73.9852542
F40.7446203
tp448
I4
s(F-73.9805394
F40.6982271
tp449
I9
s(F-73.9656923
F40.754499
tp450
I4
s(F-73.9986333
F40.71353999999999
tp451
I9
s(F-73.9806617
F40.7451288
tp452
I2
s(F-74.0037732
F40.7432206
tp453
I12
s(F-73.999242
F40.7595325
tp454
I6
s(F-73.9898582
F40.7205416
tp455
I10
s(F-73.9895094
F40.73599309999999
tp456
I7
s(F-73.9736516
F40.7645712
tp457
I8
s(F-73.9938413
F40.7209756
tp458
I1
s(F-73.9778781
F40.7489141
tp459
I2
s(F-74.0174272
F40.7084625
tp460
I1
s(F-73.9897455
F40.7263274
tp461
I3
s(F-74.00553169999999
F40.7458183
tp462
I21
s(F-73.9828817
F40.7568411
tp463
I2
s(F-73.9657721
F40.71286509999999
tp464
I4
s(F-74.00669169999999
F40.720447
tp465
I10
s(F-73.9848465
F40.7242667
tp466
I3
s(F-74.0026029
F40.7199063
tp467
I1
s(F-73.9822353
F40.7278523
tp468
I33
s(F-73.9930054
F40.7140627
tp469
I3
s(F-73.9684795
F40.7589496
tp470
I2
s(F-73.972449
F40.7407002
tp471
I6
s(F-73.99285960000002
F40.7200466
tp472
I10
s(F-73.9940558
F40.7202793
tp473
I1
s(F-73.9991785
F40.7341486
tp474
I22
s(F-74.0076405
F40.748468
tp475
I3
s(F-73.9821415
F40.72103449999999
tp476
I3
s(F-74.0083688
F40.7355023
tp477
I1
s(F-73.9688099
F40.6878743
tp478
I2
s(F-73.973545
F40.7241833
tp479
I19
s(F-73.9764833
F40.7230856
tp480
I1
s(F-73.9808231
F40.7209211
tp481
I9
s(F-73.9744918
F40.7327253
tp482
I9
s(F-74.00133939999999
F40.7620719
tp483
I1
s(F-73.9742759
F40.7261154
tp484
I1
s(F-74.0115138
F40.7222823
tp485
I3
s(F-73.98534
F40.720504
tp486
I10
s(F-74.0049978
F40.7068599
tp487
I3
s(F-73.964033
F40.684668
tp488
I2
s(F-73.9868521
F40.7452895
tp489
I9
s(F-73.9768682
F40.7324347
tp490
I2
s(F-73.9730246
F40.7444519
tp491
I7
s(F-73.9881455
F40.7485575
tp492
I10
s(F-73.9642267
F40.7085461
tp493
I1
s(F-73.9826846
F40.7354071
tp494
I4
s(F-74.008466
F40.7431247
tp495
I17
s(F-73.9977298
F40.7515072
tp496
I2
s(F-73.9985688
F40.73228779999999
tp497
I8
s(F-74.00362729999999
F40.710954
tp498
I7
s(F-73.9913055
F40.6970171
tp499
I4
s(F-73.9817163
F40.6935838
tp500
I2
s(F-74.006811
F40.74406099999999
tp501
I4
s(F-73.99266759999999
F40.7373163
tp502
I11
s(F-73.9670508
F40.760939
tp503
I2
s(F-73.9945051
F40.7041751
tp504
I17
s(F-73.96987969999999
F40.7529921
tp505
I4
s(F-73.9595752
F40.6866782
tp506
I1
s(F-73.9904979
F40.7308067
tp507
I46
s(F-74.0082273
F40.74852600000001
tp508
I5
s(F-73.9920066
F40.7256194
tp509
I8
s(F-73.9929174
F40.7478614
tp510
I3
s(F-74.0101665
F40.71295629999999
tp511
I13
s(F-73.96808200000001
F40.6894414
tp512
I8
s(F-73.9588864
F40.6986826
tp513
I1
s(F-73.98361779999999
F40.6948273
tp514
I5
s(F-73.9767483
F40.7476328
tp515
I1
s(F-73.9654901
F40.6865174
tp516
I1
s(F-73.989071
F40.7365646
tp517
I12
s(F-73.9832521
F40.6936833
tp518
I2
s(F-73.9776972
F40.7636463
tp519
I7
s(F-74.010947
F40.7291674
tp520
I2
s(F-73.98719609999999
F40.7332802
tp521
I6
s(F-73.9859651
F40.7523203
tp522
I4
s(F-73.99377419999999
F40.7290028
tp523
I9
s(F-73.99573029999999
F40.7233555
tp524
I2
s(F-73.9843083
F40.7294843
tp525
I11
s(F-74.0033563
F40.7355513
tp526
I3
s(F-73.9834557
F40.7220306
tp527
I6
s(F-74.0105796
F40.7138521
tp528
I2
s(F-73.9614204
F40.68233499999999
tp529
I4
s(F-74.0056132
F40.7406249
tp530
I16
s(F-73.98474010000001
F40.7395051
tp531
I13
s(F-73.98625539999999
F40.6999256
tp532
I11
s(F-73.9799139
F40.7268756
tp533
I8
s(F-73.988042
F40.7647357
tp534
I15
s(F-73.9928027
F40.7339085
tp535
I6
s(F-73.98482299999999
F40.7006337
tp536
I1
s(F-74.0067498
F40.7316888
tp537
I13
s(F-73.97845339999999
F40.7154338
tp538
I11
s(F-73.9835057
F40.7623398
tp539
I6
s(F-73.95655
F40.68553000000001
tp540
I1
s(F-73.9862103
F40.7672398
tp541
I6
s(F-73.9980751
F40.7195841
tp542
I1
s(F-73.98820289999999
F40.7483075
tp543
I10
s(F-74.00588069999999
F40.7223167
tp544
I6
s(F-73.96295719999999
F40.71190259999999
tp545
I3
s(F-73.98701500000001
F40.761038
tp546
I9
s(F-73.9896948
F40.7399068
tp547
I5
s(F-73.9800435
F40.7322888
tp548
I2
s(F-74.002686
F40.68506199999999
tp549
I1
s(F-73.9793456
F40.6882773
tp550
I4
s(F-73.9889304
F40.6994485
tp551
I3
s(F-73.9604959
F40.71098310000001
tp552
I11
s(F-73.9938332
F40.7327152
tp553
I9
s(F-73.98940379999999
F40.7025105
tp554
I4
s(F-74.0115975
F40.703437
tp555
I1
s(F-73.9749743
F40.7484867
tp556
I1
s(F-74.00712279999999
F40.7329492
tp557
I19
s(F-74.0015593
F40.7410712
tp558
I20
s(F-73.9736032
F40.7578418
tp559
I1
s(F-74.0067226
F40.73095199999999
tp560
I1
s(F-73.9942772
F40.7459988
tp561
I1
s(F-73.9765826
F40.71421400000001
tp562
I29
s(F-74.008242
F40.7219635
tp563
I2
s(F-73.98191349999999
F40.7464513
tp564
I2
s(F-73.98668669999999
F40.7305253
tp565
I11
s(F-73.9820335
F40.7358994
tp566
I13
s(F-73.9779331
F40.7295312
tp567
I11
s(F-73.957132
F40.688463
tp568
I1
s(F-73.9951703
F40.7447655
tp569
I14
s(F-73.9790553
F40.6831656
tp570
I1
s(F-73.9922789
F40.7124831
tp571
I15
s(F-73.9934593
F40.69757329999999
tp572
I6
s(F-73.9877764
F40.7127841
tp573
I1
s(F-73.9777963
F40.7212866
tp574
I3
s(F-73.968493
F40.691545
tp575
I3
s(F-74.0051253
F40.7464045
tp576
I22
s(F-73.99398649999999
F40.7027898
tp577
I1
s(F-73.9899172
F40.7295535
tp578
I2
s(F-73.97485929999999
F40.7296003
tp579
I2
s(F-73.9876805
F40.7285778
tp580
I18
s(F-73.9847444
F40.7641748
tp581
I20
s(F-73.992006
F40.749101
tp582
I17
s(F-73.992654
F40.7584312
tp583
I6
s(F-74.0057798
F40.7176823
tp584
I4
s(F-73.98654429999999
F40.7181224
tp585
I1
s(F-74.0146993
F40.7039531
tp586
I19
s(F-74.0136239
F40.7045579
tp587
I5
s(F-73.9919311
F40.7161787
tp588
I2
s(F-73.982483
F40.693569
tp589
I1
s(F-74.010648
F40.7071033
tp590
I3
s(F-73.995049
F40.7701296
tp591
I4
s(F-73.9817861
F40.7669282
tp592
I7
s(F-73.985504
F40.7471648
tp593
I5
s(F-73.9984272
F40.7130354
tp594
I4
s(F-73.97724110000001
F40.7154908
tp595
I1
s(F-73.9673952
F40.75604209999999
tp596
I3
s(F-74.0065848
F40.7082182
tp597
I1
s(F-74.0082146
F40.7421185
tp598
I9
s(F-73.9833534
F40.7504303
tp599
I6
s(F-73.9897872
F40.70984869999999
tp600
I1
s(F-74.0031631
F40.7348952
tp601
I4
s(F-73.9798909
F40.7350013
tp602
I27
s(F-73.9705013
F40.7449875
tp603
I9
s(F-73.9845345
F40.73694649999999
tp604
I6
s(F-73.96897899999999
F40.7499891
tp605
I10
s(F-73.99096519999999
F40.7291605
tp606
I3
s(F-73.99460499999999
F40.697888
tp607
I2
s(F-74.0147576
F40.70316469999999
tp608
I18
s(F-73.962081
F40.713269
tp609
I1
s(F-74.001797
F40.7357542
tp610
I1
s(F-73.9937434
F40.7416056
tp611
I20
s(F-73.9817567
F40.7407178
tp612
I2
s(F-73.9614377
F40.7113394
tp613
I1
s(F-73.9795001
F40.7438203
tp614
I20
s(F-74.0011844
F40.7365039
tp615
I1
s(F-73.98694929999999
F40.7209979
tp616
I2
s(F-73.9730398
F40.7526943
tp617
I12
s(F-73.9878636
F40.7646611
tp618
I9
s(F-74.0119971
F40.7222549
tp619
I3
s(F-74.0084093
F40.7438612
tp620
I3
s(F-73.9844732
F40.710384
tp621
I7
s(F-74.00120530000001
F40.7291715
tp622
I8
s(F-74.0164404
F40.7162669
tp623
I10
s(F-73.98764070000001
F40.7517397
tp624
I6
s(F-73.9902311
F40.7370459
tp625
I1
s(F-73.988749
F40.6962687
tp626
I29
s(F-73.9893633
F40.7405702
tp627
I13
s(F-73.9825451
F40.7232838
tp628
I3
s(F-74.0072776
F40.7070997
tp629
I5
s(F-73.97590410000001
F40.6835643
tp630
I5
s(F-73.97484589999999
F40.7216352
tp631
I5
s(F-73.99427299999999
F40.7156061
tp632
I1
s(F-73.9882904
F40.6898711
tp633
I8
s(F-74.0014159
F40.7225629
tp634
I3
s(F-73.991297
F40.681425
tp635
I1
s(F-73.9787284
F40.7199886
tp636
I2
s(F-73.960333
F40.7154059
tp637
I4
s(F-73.9861706
F40.7263747
tp638
I10
s(F-73.9918943
F40.7211572
tp639
I6
s(F-73.9969553
F40.7238833
tp640
I2
s(F-73.9847924
F40.7452406
tp641
I1
s(F-74.00051189999999
F40.7299997
tp642
I9
s(F-74.0040211
F40.742887
tp643
I10
s(F-73.9930071
F40.6883608
tp644
I1
s(F-73.9929109
F40.7022999
tp645
I1
s(F-73.9834034
F40.7711301
tp646
I10
s(F-74.0085831
F40.7361576
tp647
I8
s(F-73.97093699999999
F40.748407
tp648
I2
s(F-73.9728729
F40.6932504
tp649
I1
s(F-73.99784509999999
F40.761518
tp650
I4
s(F-73.9927
F40.7240949
tp651
I4
s(F-73.9600617
F40.68902050000001
tp652
I1
s(F-73.9760903
F40.7439766
tp653
I15
s(F-74.0068138
F40.7197843
tp654
I2
s(F-73.9914903
F40.7270718
tp655
I1
s(F-73.9813198
F40.7290635
tp656
I1
s(F-73.9688927
F40.7501079
tp657
I2
s(F-73.9830695
F40.730644
tp658
I5
s(F-73.9783382
F40.7541111
tp659
I2
s(F-74.016181
F40.71479619999999
tp660
I5
s(F-73.97425849999999
F40.7214767
tp661
I27
s(F-73.987179
F40.7283659
tp662
I9
s(F-74.011116
F40.7156107
tp663
I14
s(F-73.9868791
F40.7658844
tp664
I3
s(F-74.0005106
F40.7551652
tp665
I2
s(F-73.9813633
F40.7274854
tp666
I13
s(F-73.9648062
F40.6883301
tp667
I1
s(F-73.975499
F40.7188878
tp668
I8
s(F-73.9898795
F40.7143147
tp669
I9
s(F-74.0100892
F40.720422
tp670
I9
s(F-73.96613500000001
F40.689673
tp671
I2
s(F-73.9968377
F40.7267404
tp672
I10
s(F-74.0079027
F40.7426106
tp673
I5
s(F-73.9916375
F40.7025739
tp674
I6
s(F-73.9995654
F40.7139341
tp675
I4
s(F-73.97969200000001
F40.7439004
tp676
I10
s(F-73.98238959999999
F40.7674117
tp677
I11
s(F-73.9818336
F40.7522003
tp678
I10
s(F-73.963871
F40.75701309999999
tp679
I9
s(F-73.98710179999999
F40.6962137
tp680
I3
s(F-74.0047538
F40.7242778
tp681
I5
s(F-74.001559
F40.7173103
tp682
I2
s(F-73.99740589999999
F40.7214665
tp683
I21
s(F-74.00851519999999
F40.74330270000001
tp684
I2
s(F-74.00043409999999
F40.7477802
tp685
I17
s(F-74.00490239999999
F40.7568581
tp686
I1
s(F-74.00744279999999
F40.7060211
tp687
I1
s(F-73.98813969999999
F40.7485815
tp688
I2
s(F-73.9905623
F40.6937808
tp689
I3
s(F-73.9794866
F40.7122474
tp690
I4
s(F-74.01381839999999
F40.7022261
tp691
I12
s(F-73.9699517
F40.7497336
tp692
I2
s(F-73.9774302
F40.74953379999999
tp693
I3
s(F-73.9915462
F40.6961299
tp694
I1
s(F-73.9930905
F40.7578527
tp695
I4
s(F-73.999152
F40.7545942
tp696
I1
s(F-74.00676399999999
F40.7056309
tp697
I3
s(F-73.97341540000001
F40.7478382
tp698
I11
s(F-73.966141
F40.7120544
tp699
I2
s(F-73.9820275
F40.7654858
tp700
I5
s(F-73.97405359999999
F40.7596702
tp701
I11
s(F-73.9944689
F40.7204623
tp702
I11
s(F-73.97466109999999
F40.7353829
tp703
I7
s(F-73.9716661
F40.7545607
tp704
I4
s(F-73.9931452
F40.7228285
tp705
I6
s(F-73.9845206
F40.7608021
tp706
I10
s(F-73.9831152
F40.6975344
tp707
I2
s(F-73.9997085
F40.7117769
tp708
I3
s(F-73.97445809999999
F40.7507727
tp709
I1
s(F-73.98665679999999
F40.766614
tp710
I5
s(F-73.9594683
F40.7149993
tp711
I2
s(F-74.00276269999999
F40.7337128
tp712
I1
s(F-73.9915211
F40.7223066
tp713
I10
s(F-73.9923144
F40.7117323
tp714
I4
s(F-73.9773537
F40.7339194
tp715
I5
s(F-73.9807579
F40.7012366
tp716
I7
s(F-73.9703354
F40.752367
tp717
I4
s(F-73.9879814
F40.74087610000001
tp718
I16
s(F-74.003017
F40.7155932
tp719
I4
s(F-73.9768253
F40.7434905
tp720
I8
s(F-74.0053253
F40.7184069
tp721
I13
s(F-73.9860032
F40.7573414
tp722
I3
s(F-73.9887129
F40.7485077
tp723
I2
s(F-73.9776961
F40.7518689
tp724
I19
s(F-74.016037
F40.7111104
tp725
I1
s(F-73.9826835
F40.7451504
tp726
I3
s(F-73.976669
F40.7566807
tp727
I6
s(F-74.0014508
F40.7212605
tp728
I1
s(F-73.98716329999999
F40.6950649
tp729
I5
s(F-73.9859424
F40.7408676
tp730
I7
s(F-73.9788021
F40.7198839
tp731
I2
s(F-74.0076938
F40.7219187
tp732
I4
s(F-74.0053149
F40.7400264
tp733
I9
s(F-73.9762889
F40.7597918
tp734
I3
s(F-73.9849539
F40.7323264
tp735
I15
s(F-73.96885139999999
F40.6894576
tp736
I3
s(F-73.958811
F40.714824
tp737
I2
s(F-74.0142534
F40.7046431
tp738
I19
s(F-73.9944112
F40.7156504
tp739
I25
s(F-73.9872841
F40.7504619
tp740
I2
s(F-74.0086378
F40.7422086
tp741
I5
s(F-73.9633836
F40.7112182
tp742
I1
s(F-73.9907223
F40.728308
tp743
I1
s(F-74.0054976
F40.7090989
tp744
I6
s(F-74.0077407
F40.7102288
tp745
I3
s(F-73.9611427
F40.75668539999999
tp746
I3
s(F-73.99117700000001
F40.75533
tp747
I10
s(F-73.9912181
F40.6961917
tp748
I2
s(F-73.95951099999999
F40.716172
tp749
I2
s(F-74.007851
F40.7468757
tp750
I15
s(F-74.00304260000001
F40.7139929
tp751
I3
s(F-74.0044092
F40.7140097
tp752
I2
s(F-73.9831822
F40.7333229
tp753
I3
s(F-74.0142987
F40.71699539999999
tp754
I2
s(F-73.9628506
F40.69800680000001
tp755
I1
s(F-74.0063255
F40.7225337
tp756
I1
s(F-73.9789919
F40.6919135
tp757
I2
s(F-73.9797825
F40.7521408
tp758
I14
s(F-74.0088844
F40.718279
tp759
I1
s(F-73.9939259
F40.7515477
tp760
I20
s(F-74.00602219999999
F40.7061348
tp761
I11
s(F-73.97118739999999
F40.7502599
tp762
I4
s(F-73.9618172
F40.7107555
tp763
I2
s(F-73.9947175
F40.7029664
tp764
I7
s(F-73.9897616
F40.7391558
tp765
I46
s(F-74.003571
F40.7136622
tp766
I29
s(F-73.9774489
F40.7380935
tp767
I10
s(F-74.00705529999999
F40.7117826
tp768
I7
s(F-73.9891347
F40.7220599
tp769
I10
s(F-74.0099167
F40.7260624
tp770
I14
s(F-73.9949032
F40.7142236
tp771
I2
s(F-73.9835255
F40.7300043
tp772
I6
s(F-74.0132393
F40.71511539999999
tp773
I1
s(F-73.9703542
F40.753191
tp774
I4
s(F-73.9998722
F40.7632664
tp775
I5
s(F-74.0131424
F40.7174444
tp776
I19
s(F-74.0141
F40.7138572
tp777
I5
s(F-73.9869451
F40.756034
tp778
I46
s(F-73.9996563
F40.6912774
tp779
I1
s(F-73.9910182
F40.72372290000001
tp780
I49
s(F-74.00312939999999
F40.7268889
tp781
I15
s(F-73.9828107
F40.7197294
tp782
I3
s(F-73.9750765
F40.7295536
tp783
I6
s(F-73.976748
F40.759166
tp784
I3
s(F-73.9787927
F40.7476796
tp785
I2
s(F-74.0157396
F40.7115432
tp786
I20
s(F-73.9961421
F40.7088967
tp787
I7
s(F-73.9928223
F40.7300768
tp788
I3
s(F-73.9975776
F40.7258593
tp789
I5
s(F-74.0156133
F40.71553230000001
tp790
I11
s(F-73.9937715
F40.7729785
tp791
I13
s(F-73.98605719999999
F40.740917
tp792
I15
s(F-73.9967889
F40.7527253
tp793
I14
s(F-74.00912989999999
F40.7169291
tp794
I1
s(F-73.9974302
F40.7100281
tp795
I3
s(F-73.9818317
F40.7365839
tp796
I18
s(F-73.98666399999999
F40.7159955
tp797
I3
s(F-73.9649378
F40.7116865
tp798
I1
s(F-73.9956964
F40.7187848
tp799
I12
s(F-73.9974349
F40.7416504
tp800
I4
s(F-73.9745374
F40.7196105
tp801
I23
s(F-74.0045727
F40.7421137
tp802
I2
s(F-73.998746
F40.7602612
tp803
I8
s(F-73.9833663
F40.7660501
tp804
I9
s(F-73.9892385
F40.74253059999999
tp805
I91
s(F-73.9804341
F40.6899225
tp806
I1
s(F-73.9707614
F40.6978754
tp807
I2
s(F-73.9884889
F40.7467947
tp808
I24
s(F-74.0129748
F40.7022455
tp809
I31
s(F-73.992425
F40.7372142
tp810
I10
s(F-73.956841
F40.686996
tp811
I1
s(F-74.0074703
F40.7072318
tp812
I1
s(F-73.98893009999999
F40.692097
tp813
I1
s(F-73.988289
F40.685869
tp814
I1
s(F-74.0066099
F40.7316756
tp815
I9
s(F-73.97352070000001
F40.7437815
tp816
I7
s(F-73.98643969999999
F40.7558224
tp817
I65
s(F-73.9887598
F40.7229545
tp818
I7
s(F-74.0023372
F40.7607818
tp819
I1
s(F-73.9890691
F40.689373
tp820
I4
s(F-73.99449150000001
F40.7559092
tp821
I5
s(F-73.9988924
F40.712574
tp822
I1
s(F-73.97995449999999
F40.7229927
tp823
I1
s(F-73.9924169
F40.71247049999999
tp824
I19
s(F-74.007491
F40.7072464
tp825
I12
s(F-73.9936331
F40.7360158
tp826
I3
s(F-73.9907908
F40.7365263
tp827
I5
s(F-73.9803252
F40.6961893
tp828
I1
s(F-73.9885461
F40.727382
tp829
I10
s(F-73.9762334
F40.7656852
tp830
I18
s(F-73.9891689
F40.747893
tp831
I5
s(F-73.97445789999999
F40.7622939
tp832
I2
s(F-74.0088214
F40.7042066
tp833
I3
s(F-73.981794
F40.6920405
tp834
I1
s(F-74.0123565
F40.7012005
tp835
I27
s(F-73.95989879999999
F40.6881532
tp836
I1
s(F-74.0159383
F40.7151186
tp837
I21
s(F-73.9818844
F40.7319393
tp838
I4
s(F-73.983522
F40.684816
tp839
I1
s(F-74.0144406
F40.7031645
tp840
I1
s(F-73.9925521
F40.7143549
tp841
I18
s(F-73.9805499
F40.6982942
tp842
I7
s(F-74.0042591
F40.710159
tp843
I3
s(F-73.988383
F40.7164229
tp844
I3
s(F-73.95857629999999
F40.6817384
tp845
I2
s(F-73.9885639
F40.7462015
tp846
I11
s(F-73.9876306
F40.7704272
tp847
I4
s(F-74.0084285
F40.7240156
tp848
I2
s(F-73.99110139999999
F40.7503293
tp849
I8
s(F-73.96880999999999
F40.693121
tp850
I1
s(F-73.9756029
F40.6871176
tp851
I1
s(F-73.9896034
F40.7204623
tp852
I22
s(F-73.9946459
F40.7259213
tp853
I19
s(F-73.9842446
F40.6921209
tp854
I1
s(F-73.9928463
F40.7143318
tp855
I17
s(F-74.0024887
F40.7303361
tp856
I18
s(F-73.9931526
F40.7366894
tp857
I7
s(F-74.00188519999999
F40.7508373
tp858
I5
s(F-73.9907181
F40.6945637
tp859
I4
s(F-74.0115103
F40.70295309999999
tp860
I4
s(F-73.995751
F40.7209004
tp861
I2
s(F-73.9828174
F40.71595629999999
tp862
I2
s(F-73.9829432
F40.7538879
tp863
I1
s(F-74.0100187
F40.7173753
tp864
I1
s(F-73.99728400000001
F40.7472826
tp865
I20
s(F-73.9971806
F40.7223304
tp866
I20
s(F-74.00388819999999
F40.7058106
tp867
I12
s(F-73.9922319
F40.7379049
tp868
I16
s(F-74.0148202
F40.7111807
tp869
I18
s(F-73.9563281
F40.6906609
tp870
I1
s(F-73.954246
F40.685047
tp871
I1
s(F-73.97576990000002
F40.72866030000001
tp872
I6
s(F-74.0029899
F40.72331
tp873
I1
s(F-74.00729369999999
F40.7086717
tp874
I8
s(F-74.0061372
F40.71944999999999
tp875
I2
s(F-73.9740559
F40.7497385
tp876
I2
s(F-73.97715509999999
F40.7387795
tp877
I5
s(F-73.9805313
F40.7338067
tp878
I13
s(F-74.0101974
F40.7374791
tp879
I1
s(F-73.99998599999999
F40.7377616
tp880
I4
s(F-73.9926741
F40.7131281
tp881
I3
s(F-73.9769889
F40.7501536
tp882
I1
s(F-73.991633
F40.754707
tp883
I23
s(F-74.0116208
F40.7036506
tp884
I3
s(F-73.9948569
F40.7231944
tp885
I8
s(F-73.9892721
F40.7216982
tp886
I16
s(F-74.0056711
F40.720076
tp887
I4
s(F-74.0138193
F40.71761679999999
tp888
I1
s(F-74.00314449999999
F40.7062308
tp889
I2
s(F-73.9763734
F40.74410719999999
tp890
I22
s(F-73.9896449
F40.6903327
tp891
I1
s(F-73.9754255
F40.7553579
tp892
I3
s(F-74.0023398
F40.7502166
tp893
I4
s(F-74.0046651
F40.756926
tp894
I1
s(F-73.9938171
F40.74662319999999
tp895
I7
s(F-74.0107828
F40.71689680000001
tp896
I9
s(F-74.006751
F40.7224905
tp897
I1
s(F-74.01071080000001
F40.7071433
tp898
I3
s(F-74.0106382
F40.7174592
tp899
I11
s(F-73.98278739999999
F40.7452008
tp900
I3
s(F-73.98448479999999
F40.7104582
tp901
I7
s(F-73.9941851
F40.7142758
tp902
I2
s(F-73.99193389999999
F40.7117571
tp903
I2
s(F-73.9866509
F40.7551488
tp904
I7
s(F-74.0133597
F40.7165784
tp905
I18
s(F-73.99096229999999
F40.745418
tp906
I1
s(F-73.9789845
F40.7122806
tp907
I1
s(F-73.9970149
F40.7422317
tp908
I15
s(F-73.9744535
F40.686323
tp909
I1
s(F-73.98684999999999
F40.7510839
tp910
I2
s(F-73.954466
F40.691017
tp911
I2
s(F-73.960139
F40.715583
tp912
I7
s(F-73.9917231
F40.7095449
tp913
I20
s(F-73.9849251
F40.7551768
tp914
I2
s(F-73.9979707
F40.7226717
tp915
I4
s(F-73.99415669999999
F40.7353038
tp916
I22
s(F-73.9926406
F40.7151384
tp917
I5
s(F-73.9785983
F40.7623979
tp918
I2
s(F-73.9861567
F40.6890097
tp919
I3
s(F-73.97854029999999
F40.7322113
tp920
I1
s(F-73.97033979999999
F40.7623192
tp921
I3
s(F-73.9890723
F40.73069690000001
tp922
I2
s(F-73.9872494
F40.7291746
tp923
I7
s(F-74.0051793
F40.74084999999999
tp924
I76
s(F-73.98582549999999
F40.7176254
tp925
I3
s(F-73.9798868
F40.6874074
tp926
I2
s(F-73.9871304
F40.753623
tp927
I12
s(F-74.0011315
F40.7416646
tp928
I31
s(F-74.0065121
F40.7112185
tp929
I1
s(F-73.9878224
F40.7352841
tp930
I16
s(F-73.987927
F40.759791
tp931
I1
s(F-73.9721105
F40.7456737
tp932
I11
s(F-73.9697406
F40.6977702
tp933
I1
s(F-73.99144009999999
F40.69703550000001
tp934
I5
s(F-74.00943029999999
F40.724104
tp935
I14
s(F-73.9833659
F40.7413912
tp936
I8
s(F-73.9646692
F40.7601533
tp937
I8
s(F-73.9876963
F40.7015734
tp938
I2
s(F-73.9801754
F40.7222908
tp939
I4
s(F-73.9881577
F40.73197529999999
tp940
I12
s(F-73.97997579999999
F40.7391612
tp941
I17
s(F-73.9825207
F40.7640527
tp942
I13
s(F-73.9902176
F40.7140565
tp943
I1
s(F-73.98798959999999
F40.7705788
tp944
I6
s(F-73.987039
F40.6902715
tp945
I1
s(F-73.9827463
F40.733896
tp946
I1
s(F-73.9892533
F40.752907
tp947
I1
s(F-73.9893022
F40.757907
tp948
I6
s(F-73.9695399
F40.691564
tp949
I2
s(F-73.9746043
F40.7327508
tp950
I1
s(F-74.01627719999999
F40.7133078
tp951
I2
s(F-73.9926941
F40.7188778
tp952
I14
s(F-74.0073731
F40.71059289999999
tp953
I1
s(F-73.99743699999999
F40.7571634
tp954
I8
s(F-73.97878709999999
F40.75348350000001
tp955
I1
s(F-73.98675349999999
F40.7196024
tp956
I4
s(F-73.98835609999999
F40.7475435
tp957
I8
s(F-73.9768575
F40.71462270000001
tp958
I3
s(F-73.98424159999999
F40.7169525
tp959
I5
s(F-73.9987182
F40.7347899
tp960
I3
s(F-74.0093109
F40.724783
tp961
I1
s(F-73.9910319
F40.7007584
tp962
I2
s(F-73.9822186
F40.74578
tp963
I13
s(F-73.9925189
F40.7241833
tp964
I1
s(F-73.9689318
F40.7583273
tp965
I1
s(F-73.9803575
F40.7303991
tp966
I1
s(F-73.9988302
F40.7593444
tp967
I2
s(F-73.97736549999999
F40.7320579
tp968
I2
s(F-73.9804633
F40.6996384
tp969
I5
s(F-74.0061244
F40.7040165
tp970
I8
s(F-73.98825579999999
F40.7491024
tp971
I14
s(F-73.9787049
F40.7319858
tp972
I2
s(F-74.0092023
F40.7162003
tp973
I1
s(F-74.0052487
F40.7570202
tp974
I4
s(F-73.96740969999999
F40.7132966
tp975
I3
s(F-73.9895852
F40.7415481
tp976
I3
s(F-74.009007
F40.71867340000001
tp977
I7
s(F-74.00894079999999
F40.73116539999999
tp978
I1
s(F-73.9836203
F40.7529716
tp979
I1
s(F-73.9998367
F40.6917185
tp980
I1
s(F-73.990983
F40.7183498
tp981
I6
s(F-73.9858438
F40.7408231
tp982
I5
s(F-74.013103
F40.7150969
tp983
I6
s(F-73.998009
F40.745952
tp984
I9
s(F-73.9610398
F40.7119756
tp985
I1
s(F-73.99779219999999
F40.7215986
tp986
I8
s(F-73.9959047
F40.6951155
tp987
I3
s(F-73.9782256
F40.6868335
tp988
I9
s(F-74.0037447
F40.72628479999999
tp989
I2
s(F-74.0054463
F40.7048149
tp990
I3
s(F-73.99411289999999
F40.7105542
tp991
I2
s(F-74.0088974
F40.7090281
tp992
I3
s(F-73.9847226
F40.7362659
tp993
I5
s(F-73.9633925
F40.7167695
tp994
I2
s(F-73.9969268
F40.7627665
tp995
I1
s(F-73.9810914
F40.72103550000001
tp996
I10
s(F-73.97769009999999
F40.72943739999999
tp997
I8
s(F-74.01501139999999
F40.7181721
tp998
I7
s(F-74.00466329999999
F40.74701779999999
tp999
I26
s(F-74.00138559999999
F40.73382549999999
tp1000
I2
s(F-73.98240109999999
F40.6958767
tp1001
I1
s(F-73.98773109999999
F40.70067290000001
tp1002
I2
s(F-74.00210489999999
F40.719153
tp1003
I4
s(F-74.00145739999999
F40.7621155
tp1004
I3
s(F-73.9889033
F40.7445452
tp1005
I2
s(F-74.006314
F40.7226286
tp1006
I1
s(F-73.9763868
F40.719086
tp1007
I2
s(F-74.0090695
F40.7172716
tp1008
I3
s(F-73.991418
F40.7546167
tp1009
I10
s(F-74.00427510000002
F40.7526569
tp1010
I8
s(F-74.00642479999999
F40.7330556
tp1011
I1
s(F-74.01166719999999
F40.7136509
tp1012
I1
s(F-73.9976636
F40.7208259
tp1013
I5
s(F-73.9904925
F40.6938364
tp1014
I1
s(F-74.0104672
F40.717436
tp1015
I7
s(F-74.0028025
F40.7393722
tp1016
I34
s(F-74.005364
F40.7182973
tp1017
I2
s(F-73.992933
F40.688515
tp1018
I2
s(F-73.9947559
F40.727835
tp1019
I24
s(F-73.9998628
F40.7204318
tp1020
I3
s(F-74.0165481
F40.7153839
tp1021
I22
s(F-73.99390439999999
F40.7466611
tp1022
I11
s(F-73.997813
F40.7360172
tp1023
I1
s(F-73.9835307
F40.6900293
tp1024
I3
s(F-73.96251819999999
F40.70041459999999
tp1025
I10
s(F-74.0055935
F40.7114194
tp1026
I1
s(F-73.97185449999999
F40.7546361
tp1027
I7
s(F-73.9891325
F40.7413576
tp1028
I8
s(F-73.98630949999999
F40.7401653
tp1029
I1
s(F-74.0012359
F40.7338431
tp1030
I21
s(F-73.9973661
F40.7366609
tp1031
I16
s(F-73.99698479999999
F40.7314123
tp1032
I41
s(F-73.9770989
F40.72647420000001
tp1033
I1
s(F-73.9865899
F40.7180228
tp1034
I6
s(F-73.9790653
F40.7668893
tp1035
I10
s(F-73.99082940000001
F40.7345569
tp1036
I22
s(F-74.0103513
F40.7298554
tp1037
I26
s(F-73.996854
F40.7577372
tp1038
I1
s(F-73.9813583
F40.7206605
tp1039
I4
s(F-73.97801609999999
F40.7596942
tp1040
I9
s(F-73.9634793
F40.6818761
tp1041
I2
s(F-73.973766
F40.760365
tp1042
I2
s(F-73.987639
F40.7024555
tp1043
I1
s(F-73.9954707
F40.7216291
tp1044
I1
s(F-74.00217119999999
F40.755869
tp1045
I6
s(F-74.001727
F40.7305353
tp1046
I17
s(F-74.0118648
F40.7013225
tp1047
I5
s(F-73.99065019999999
F40.7666517
tp1048
I9
s(F-73.9828697
F40.7539901
tp1049
I1
s(F-73.9693831
F40.7576956
tp1050
I4
s(F-73.9822815
F40.7515863
tp1051
I3
s(F-74.0076479
F40.7030934
tp1052
I3
s(F-73.9847724
F40.76921230000001
tp1053
I11
s(F-73.98038559999999
F40.760708
tp1054
I5
s(F-73.9753501
F40.7330729
tp1055
I1
s(F-73.96087030000001
F40.7104404
tp1056
I5
s(F-74.0134278
F40.714436
tp1057
I3
s(F-74.0091968
F40.7162552
tp1058
I3
s(F-73.97213350000001
F40.6895916
tp1059
I4
s(F-73.9812322
F40.7250808
tp1060
I2
s(F-73.99867309999999
F40.7118777
tp1061
I1
s(F-73.9874033
F40.7358757
tp1062
I3
s(F-73.9945748
F40.7294113
tp1063
I12
s(F-73.9831793
F40.75532949999999
tp1064
I3
s(F-73.9950724
F40.7340256
tp1065
I8
s(F-73.9947103
F40.7213161
tp1066
I2
s(F-73.982745
F40.7509601
tp1067
I4
s(F-73.99142189999999
F40.7447955
tp1068
I5
s(F-74.0024425
F40.7387685
tp1069
I19
s(F-74.0067093
F40.7036502
tp1070
I11
s(F-74.0056243
F40.7104302
tp1071
I3
s(F-73.9972674
F40.72182979999999
tp1072
I14
s(F-73.990276
F40.756567
tp1073
I17
s(F-73.98735169999999
F40.7529108
tp1074
I13
s(F-73.9831272
F40.717168
tp1075
I2
s(F-73.98654859999999
F40.7044268
tp1076
I2
s(F-73.9986277
F40.7322213
tp1077
I62
s(F-74.00110029999999
F40.7334407
tp1078
I20
s(F-73.9806139
F40.721683
tp1079
I1
s(F-74.006025
F40.7078984
tp1080
I4
s(F-73.9731424
F40.689631
tp1081
I1
s(F-73.9831236
F40.7445263
tp1082
I6
s(F-73.9856891
F40.7277365
tp1083
I9
s(F-73.9822652
F40.7359972
tp1084
I43
s(F-73.9720574
F40.7596427
tp1085
I1
s(F-74.0050236
F40.7570868
tp1086
I3
s(F-74.01160279999999
F40.7040168
tp1087
I13
s(F-74.00268179999999
F40.760857
tp1088
I11
s(F-73.9957161
F40.7245914
tp1089
I10
s(F-73.9870143
F40.7341053
tp1090
I10
s(F-73.9996026
F40.72342099999999
tp1091
I11
s(F-74.00255709999999
F40.76073
tp1092
I31
s(F-74.0074515
F40.7266087
tp1093
I2
s(F-73.9903386
F40.7616238
tp1094
I5
s(F-73.961423
F40.716384
tp1095
I1
s(F-74.0092707
F40.7155345
tp1096
I4
s(F-74.006935
F40.7191137
tp1097
I1
s(F-73.9822018
F40.7209166
tp1098
I1
s(F-73.9898985
F40.7622465
tp1099
I4
s(F-74.0054268
F40.7394098
tp1100
I11
s(F-73.9865248
F40.7102125
tp1101
I10
s(F-74.00397199999999
F40.7298646
tp1102
I3
s(F-73.96624150000001
F40.75799809999999
tp1103
I10
s(F-73.9965155
F40.7173388
tp1104
I11
s(F-73.9705554
F40.6915996
tp1105
I1
s(F-73.9831701
F40.7503537
tp1106
I7
s(F-73.9982943
F40.7404763
tp1107
I2
s(F-73.9744415
F40.6959545
tp1108
I1
s(F-73.99063509999999
F40.7364614
tp1109
I1
s(F-74.0052024
F40.7514281
tp1110
I1
s(F-73.97790739999999
F40.7515799
tp1111
I16
s(F-73.990624
F40.7510161
tp1112
I1
s(F-73.9899657
F40.7353634
tp1113
I1
s(F-73.9684245
F40.7507482
tp1114
I9
s(F-74.0092693
F40.7132656
tp1115
I1
s(F-73.98336479999999
F40.7148922
tp1116
I1
s(F-73.95994329999999
F40.7107831
tp1117
I1
s(F-73.993451
F40.7521936
tp1118
I13
s(F-74.0130571
F40.7151889
tp1119
I14
s(F-73.9743738
F40.73273349999999
tp1120
I11
s(F-73.99407599999999
F40.7155528
tp1121
I7
s(F-73.976715
F40.6840542
tp1122
I2
s(F-74.0007427
F40.7359156
tp1123
I1
s(F-74.00273059999999
F40.74463919999999
tp1124
I11
s(F-73.9857665
F40.7230145
tp1125
I7
s(F-73.997552
F40.746581
tp1126
I18
s(F-73.9755996
F40.724291
tp1127
I8
s(F-73.9894295
F40.7628806
tp1128
I3
s(F-74.0166196
F40.7120797
tp1129
I4
s(F-73.9938466
F40.7181661
tp1130
I16
s(F-74.0132136
F40.71522119999999
tp1131
I2
s(F-73.97911959999999
F40.6934845
tp1132
I6
s(F-73.9906996
F40.7182605
tp1133
I3
s(F-74.0025412
F40.7186342
tp1134
I2
s(F-73.98129780000001
F40.6920172
tp1135
I1
s(F-73.9896882
F40.7016244
tp1136
I2
s(F-73.9826618
F40.7272618
tp1137
I16
s(F-73.957056
F40.689456
tp1138
I4
s(F-73.982987
F40.6900617
tp1139
I1
s(F-74.0064885
F40.7096184
tp1140
I5
s(F-73.99208039999999
F40.7162118
tp1141
I2
s(F-73.9850731
F40.7190891
tp1142
I2
s(F-74.0129963
F40.7023898
tp1143
I9
s(F-73.9821985
F40.7400926
tp1144
I3
s(F-73.98468419999999
F40.7216688
tp1145
I3
s(F-73.9830619
F40.6983629
tp1146
I1
s(F-73.97728
F40.7428747
tp1147
I9
s(F-74.0085948
F40.7289204
tp1148
I1
s(F-73.9903621
F40.7249271
tp1149
I12
s(F-74.0087999
F40.7318819
tp1150
I3
s(F-73.9831597
F40.7388368
tp1151
I1
s(F-73.9844268
F40.7330208
tp1152
I5
s(F-73.9834451
F40.7470899
tp1153
I3
s(F-73.9816723
F40.7322259
tp1154
I9
s(F-73.97444349999999
F40.732517
tp1155
I2
s(F-73.9981561
F40.7509146
tp1156
I7
s(F-74.00749239999999
F40.7483319
tp1157
I3
s(F-73.9849693
F40.6976202
tp1158
I1
s(F-74.0157524
F40.7115112
tp1159
I20
s(F-74.0039815
F40.7104074
tp1160
I3
s(F-74.01110709999999
F40.7242681
tp1161
I19
s(F-73.974981
F40.75597740000001
tp1162
I3
s(F-73.9797746
F40.7390762
tp1163
I8
s(F-73.99925929999999
F40.7188858
tp1164
I4
s(F-73.9871465
F40.7710569
tp1165
I1
s(F-73.9793761
F40.6866889
tp1166
I2
s(F-73.9771008
F40.6934259
tp1167
I3
s(F-73.9881872
F40.7491863
tp1168
I5
s(F-74.0091241
F40.7093183
tp1169
I4
s(F-73.9793609
F40.7578115
tp1170
I10
s(F-73.98999429999999
F40.7564481
tp1171
I19
s(F-73.9747158
F40.7181848
tp1172
I25
s(F-73.9694279
F40.7536329
tp1173
I10
s(F-73.99513519999999
F40.7332742
tp1174
I8
s(F-73.9968981
F40.76684119999999
tp1175
I1
s(F-73.9909592
F40.7241246
tp1176
I50
s(F-73.9896261
F40.7025163
tp1177
I5
s(F-74.0069393
F40.7047811
tp1178
I3
s(F-73.99873029999999
F40.7398871
tp1179
I4
s(F-73.9964841
F40.7190465
tp1180
I2
s(F-74.00064499999999
F40.7195334
tp1181
I7
s(F-74.0171412
F40.7083378
tp1182
I10
s(F-73.993628
F40.7272842
tp1183
I8
s(F-73.9809935
F40.7642247
tp1184
I8
s(F-74.0080605
F40.7053854
tp1185
I1
s(F-73.9945312
F40.7609335
tp1186
I12
s(F-73.9999096
F40.691766
tp1187
I2
s(F-74.0077567
F40.7467441
tp1188
I21
s(F-73.983217
F40.6960734
tp1189
I1
s(F-74.01013569999999
F40.7201147
tp1190
I2
s(F-74.00681639999999
F40.7357242
tp1191
I3
s(F-74.0035455
F40.7593292
tp1192
I19
s(F-73.97016649999999
F40.7622465
tp1193
I1
s(F-73.97531889999999
F40.7178473
tp1194
I3
s(F-74.0003279
F40.7352184
tp1195
I12
s(F-73.98904329999999
F40.7684462
tp1196
I5
s(F-74.0020005
F40.755795
tp1197
I3
s(F-74.006402
F40.7204176
tp1198
I10
s(F-73.9790704
F40.744452
tp1199
I2
s(F-73.9760256
F40.7489323
tp1200
I13
s(F-73.9993653
F40.73006880000001
tp1201
I5
s(F-73.9768498
F40.6838314
tp1202
I2
s(F-74.00297870000001
F40.7496782
tp1203
I7
s(F-73.96469549999999
F40.71750300000001
tp1204
I1
s(F-73.9864335
F40.6910807
tp1205
I1
s(F-74.00811209999999
F40.7387628
tp1206
I1
s(F-73.99049219999999
F40.7305472
tp1207
I26
s(F-73.982078
F40.7652938
tp1208
I9
s(F-74.0085357
F40.7340871
tp1209
I1
s(F-73.98685859999999
F40.7379273
tp1210
I3
s(F-73.9795276
F40.7611488
tp1211
I2
s(F-73.981175
F40.702232
tp1212
I5
s(F-73.97868129999999
F40.6898418
tp1213
I1
s(F-74.0092251
F40.7297365
tp1214
I3
s(F-73.9838044
F40.7215366
tp1215
I8
s(F-74.00782769999999
F40.7517369
tp1216
I3
s(F-73.9769125
F40.7225032
tp1217
I5
s(F-73.9908725
F40.7007668
tp1218
I1
s(F-74.003174
F40.7440493
tp1219
I17
s(F-73.9741007
F40.7639192
tp1220
I14
s(F-73.97030869999999
F40.7564542
tp1221
I5
s(F-73.9933759
F40.7190769
tp1222
I6
s(F-73.98900660000001
F40.7216088
tp1223
I4
s(F-74.00847139999999
F40.72064630000001
tp1224
I7
s(F-73.994292
F40.698535
tp1225
I1
s(F-73.9822513
F40.7647595
tp1226
I2
s(F-74.0170435
F40.7048403
tp1227
I19
s(F-73.9878045
F40.7247176
tp1228
I8
s(F-73.9770779
F40.7427962
tp1229
I4
s(F-73.9803992
F40.7541608
tp1230
I10
s(F-74.00870069999999
F40.7193035
tp1231
I7
s(F-73.99290359999999
F40.7014663
tp1232
I1
s(F-74.00256689999999
F40.7161647
tp1233
I3
s(F-73.9848349
F40.71306
tp1234
I4
s(F-73.9841848
F40.7598383
tp1235
I25
s(F-73.9921474
F40.7252342
tp1236
I7
s(F-73.9921
F40.694947
tp1237
I4
s(F-74.0090896
F40.7422366
tp1238
I14
s(F-73.98580989999999
F40.73520130000001
tp1239
I1
s(F-73.997028
F40.7668993
tp1240
I1
s(F-73.9948473
F40.7027702
tp1241
I7
s(F-73.9828424
F40.7013598
tp1242
I2
s(F-73.9982496
F40.713256
tp1243
I4
s(F-73.9986508
F40.7082699
tp1244
I5
s(F-73.9888398
F40.7585406
tp1245
I19
s(F-73.9741538
F40.7244455
tp1246
I19
s(F-73.99054149999999
F40.7715222
tp1247
I7
s(F-73.9626711
F40.7125622
tp1248
I3
s(F-73.9777994
F40.7339518
tp1249
I4
s(F-73.97470899999999
F40.7187288
tp1250
I2
s(F-73.9640634
F40.7130692
tp1251
I2
s(F-74.0022137
F40.7216256
tp1252
I3
s(F-74.0083453
F40.703804
tp1253
I3
s(F-74.0002019
F40.7378694
tp1254
I4
s(F-73.9873233
F40.7530131
tp1255
I6
s(F-73.9983408
F40.7501443
tp1256
I6
s(F-73.9962003
F40.7484335
tp1257
I6
s(F-73.9906266
F40.7306034
tp1258
I6
s(F-73.99084169999999
F40.7303214
tp1259
I23
s(F-73.9960409
F40.7201919
tp1260
I5
s(F-73.9778978
F40.7531155
tp1261
I23
s(F-73.9799523
F40.7431951
tp1262
I9
s(F-73.99046919999999
F40.7716296
tp1263
I7
s(F-73.9659059
F40.7545896
tp1264
I1
s(F-73.9795496
F40.7662157
tp1265
I1
s(F-73.9958443
F40.7540632
tp1266
I1
s(F-73.9918501
F40.7160405
tp1267
I6
s(F-73.9886537
F40.69952380000001
tp1268
I12
s(F-73.9738048
F40.6979315
tp1269
I1
s(F-73.9923115
F40.7435581
tp1270
I4
s(F-74.0042295
F40.7129454
tp1271
I18
s(F-73.9930674
F40.7179232
tp1272
I2
s(F-74.0081321
F40.74859
tp1273
I5
s(F-73.97836029999999
F40.7482591
tp1274
I5
s(F-74.0152281
F40.70985830000001
tp1275
I8
s(F-73.9986404
F40.7502703
tp1276
I27
s(F-74.01117959999999
F40.710383
tp1277
I1
s(F-74.0069599
F40.7295068
tp1278
I15
s(F-73.96077919999999
F40.7169694
tp1279
I4
s(F-73.9972913
F40.742348
tp1280
I8
s(F-73.97927930000002
F40.6882503
tp1281
I1
s(F-73.99429529999999
F40.6947901
tp1282
I1
s(F-73.9722048
F40.7498231
tp1283
I16
s(F-74.0019192
F40.7245656
tp1284
I10
s(F-74.0069894
F40.7546328
tp1285
I3
s(F-73.9956035
F40.7281978
tp1286
I6
s(F-74.0039934
F40.7071864
tp1287
I5
s(F-73.9869654
F40.7364484
tp1288
I2
s(F-74.00755269999999
F40.7154521
tp1289
I3
s(F-73.958396
F40.680798
tp1290
I4
s(F-73.971239
F40.6850289
tp1291
I2
s(F-73.9952635
F40.719867
tp1292
I1
s(F-73.9883481
F40.7164859
tp1293
I5
s(F-74.00875169999999
F40.7190525
tp1294
I1
s(F-73.993223
F40.7223437
tp1295
I20
s(F-73.9813623
F40.7680769
tp1296
I2
s(F-74.00964870000001
F40.7241244
tp1297
I5
s(F-73.99607689999999
F40.7301664
tp1298
I8
s(F-74.00875769999999
F40.7439195
tp1299
I3
s(F-73.9935881
F40.7571543
tp1300
I4
s(F-74.0065947
F40.7364446
tp1301
I2
s(F-73.9986114
F40.724628
tp1302
I4
s(F-74.0039116
F40.7200455
tp1303
I3
s(F-74.0052553
F40.72303549999999
tp1304
I6
s(F-73.9907782
F40.73479469999999
tp1305
I12
s(F-73.97524729999999
F40.74139650000001
tp1306
I11
s(F-73.9908993
F40.7502422
tp1307
I9
s(F-73.9880316
F40.7489953
tp1308
I24
s(F-74.00702540000002
F40.7098694
tp1309
I4
s(F-73.98852509999999
F40.7229941
tp1310
I49
s(F-73.98668719999999
F40.702424
tp1311
I2
s(F-73.99303499999999
F40.7143229
tp1312
I5
s(F-73.9996925
F40.72842139999999
tp1313
I10
s(F-73.9684953
F40.7108172
tp1314
I1
s(F-73.97361649999999
F40.7314464
tp1315
I4
s(F-73.9883649
F40.7489605
tp1316
I8
s(F-73.9825049
F40.7183105
tp1317
I4
s(F-73.9895645
F40.7398528
tp1318
I6
s(F-74.0043918
F40.7333734
tp1319
I6
s(F-73.9818061
F40.7580271
tp1320
I1
s(F-73.9789121
F40.7584384
tp1321
I1
s(F-73.9890975
F40.74238709999999
tp1322
I13
s(F-73.97963899999999
F40.7328137
tp1323
I1
s(F-73.994046
F40.690897
tp1324
I4
s(F-74.00527819999999
F40.7182566
tp1325
I3
s(F-73.9898146
F40.7286707
tp1326
I3
s(F-73.98683539999999
F40.6998785
tp1327
I13
s(F-73.9980825
F40.7137894
tp1328
I4
s(F-73.9794673
F40.714954
tp1329
I2
s(F-73.972574
F40.7533142
tp1330
I2
s(F-73.9808523
F40.7297042
tp1331
I17
s(F-74.0108559
F40.7297518
tp1332
I26
s(F-73.9878568
F40.68648520000001
tp1333
I2
s(F-74.0075299
F40.7176579
tp1334
I2
s(F-73.974015
F40.743095
tp1335
I22
s(F-73.9965785
F40.7295668
tp1336
I28
s(F-73.9959437
F40.7328437
tp1337
I16
s(F-73.9828081
F40.7022854
tp1338
I3
s(F-73.9914916
F40.722364
tp1339
I18
s(F-73.9903523
F40.737098
tp1340
I8
s(F-73.9820458
F40.7677049
tp1341
I13
s(F-74.0066673
F40.7191152
tp1342
I2
s(F-73.9990832
F40.7496432
tp1343
I3
s(F-74.0093663
F40.7086275
tp1344
I3
s(F-73.98281229999999
F40.7617278
tp1345
I8
s(F-73.9751221
F40.7187638
tp1346
I5
s(F-74.0055454
F40.7175755
tp1347
I6
s(F-74.0018474
F40.7458471
tp1348
I12
s(F-74.00804889999999
F40.7484741
tp1349
I30
s(F-73.9595303
F40.7114199
tp1350
I1
s(F-73.9802429
F40.688649
tp1351
I1
s(F-73.98981049999999
F40.7100664
tp1352
I1
s(F-73.9789002
F40.7111467
tp1353
I1
s(F-74.00781289999999
F40.7317894
tp1354
I8
s(F-73.9729334
F40.7389404
tp1355
I15
s(F-74.0060869
F40.7351297
tp1356
I3
s(F-73.9835429
F40.7260554
tp1357
I18
s(F-73.9816158
F40.7326491
tp1358
I3
s(F-73.9765132
F40.7598833
tp1359
I3
s(F-74.00821669999999
F40.737548
tp1360
I1
s(F-74.0061707
F40.7052682
tp1361
I3
s(F-73.9740813
F40.732748
tp1362
I9
s(F-73.9757994
F40.7406271
tp1363
I16
s(F-74.0081888
F40.746906
tp1364
I17
s(F-73.9688397
F40.6932676
tp1365
I8
s(F-74.0064891
F40.7369657
tp1366
I3
s(F-73.9884924
F40.7127254
tp1367
I6
s(F-73.9894317
F40.740324
tp1368
I11
s(F-73.96432779999999
F40.7606092
tp1369
I2
s(F-74.0095505
F40.7103545
tp1370
I1
s(F-73.9907621
F40.7297446
tp1371
I3
s(F-74.0110007
F40.7133398
tp1372
I8
s(F-74.0088241
F40.7186561
tp1373
I4
s(F-73.9914517
F40.7174309
tp1374
I21
s(F-73.99072319999999
F40.7559504
tp1375
I17
s(F-74.00547329999999
F40.7073755
tp1376
I2
s(F-74.0045471
F40.7255663
tp1377
I7
s(F-73.97534019999999
F40.74126870000001
tp1378
I10
s(F-74.003446
F40.738756
tp1379
I2
s(F-73.9939874
F40.7291075
tp1380
I15
s(F-73.987447
F40.755373
tp1381
I7
s(F-74.0096918
F40.712735
tp1382
I11
s(F-73.98587239999999
F40.7175217
tp1383
I3
s(F-73.9868339
F40.7121922
tp1384
I1
s(F-74.0057415
F40.7224767
tp1385
I6
s(F-74.005169
F40.7294663
tp1386
I8
s(F-74.0131992
F40.704042
tp1387
I13
s(F-73.9829783
F40.7226831
tp1388
I3
s(F-73.9926986
F40.7634309
tp1389
I9
s(F-73.9942342
F40.7156727
tp1390
I9
s(F-73.9962408
F40.6907532
tp1391
I1
s(F-73.98621469999999
F40.6931169
tp1392
I5
s(F-73.9893982
F40.7417987
tp1393
I1
s(F-73.96970630000001
F40.7628756
tp1394
I1
s(F-73.98402899999999
F40.7433035
tp1395
I4
s(F-73.99452409999999
F40.7354592
tp1396
I6
s(F-73.96983949999999
F40.7570669
tp1397
I3
s(F-74.0020262
F40.706584
tp1398
I30
s(F-74.0138348
F40.7023984
tp1399
I2
s(F-73.989032
F40.6950166
tp1400
I2
s(F-73.9671458
F40.7567606
tp1401
I3
s(F-73.99239539999999
F40.715062
tp1402
I8
s(F-74.0123344
F40.7012078
tp1403
I5
s(F-73.9853065
F40.7275748
tp1404
I15
s(F-73.98504299999999
F40.753554
tp1405
I16
s(F-74.0045951
F40.7339987
tp1406
I8
s(F-73.98894489999999
F40.6962782
tp1407
I4
s(F-73.9766156
F40.72237870000001
tp1408
I5
s(F-74.0080892
F40.7393793
tp1409
I21
s(F-74.0116444
F40.7128102
tp1410
I2
s(F-73.974223
F40.7597432
tp1411
I3
s(F-74.007925
F40.70552430000001
tp1412
I1
s(F-73.9816251
F40.7683644
tp1413
I5
s(F-74.00645999999999
F40.7095169
tp1414
I1
s(F-73.98257579999999
F40.7022778
tp1415
I2
s(F-73.98787469999999
F40.6904832
tp1416
I4
s(F-73.954897
F40.6930997
tp1417
I2
s(F-73.9844
F40.68756399999999
tp1418
I2
s(F-74.0037795
F40.7223915
tp1419
I9
s(F-74.00026729999999
F40.7112346
tp1420
I2
s(F-73.99429669999999
F40.70302
tp1421
I1
s(F-73.995333
F40.688226
tp1422
I1
s(F-74.002828
F40.7283726
tp1423
I3
s(F-73.9859247
F40.7193534
tp1424
I9
s(F-73.9934845
F40.721624
tp1425
I20
s(F-74.00510899999999
F40.7094435
tp1426
I3
s(F-73.9971015
F40.7222989
tp1427
I33
s(F-73.9829322
F40.69983879999999
tp1428
I6
s(F-74.0020732
F40.7455402
tp1429
I14
s(F-73.9817789
F40.7669632
tp1430
I2
s(F-74.00432010000002
F40.707821
tp1431
I1
s(F-73.9841684
F40.7402923
tp1432
I16
s(F-74.009649
F40.7387014
tp1433
I4
s(F-73.97754549999999
F40.7258816
tp1434
I1
s(F-73.9775978
F40.7381569
tp1435
I19
s(F-74.0052772
F40.7082013
tp1436
I2
s(F-73.9927737
F40.7138481
tp1437
I9
s(F-73.9863718
F40.7303966
tp1438
I27
s(F-74.0047356
F40.7244017
tp1439
I4
s(F-73.9806129
F40.7110369
tp1440
I2
s(F-73.9757053
F40.7546572
tp1441
I5
s(F-74.0072189
F40.70862380000001
tp1442
I3
s(F-73.98770700000001
F40.7514469
tp1443
I3
s(F-73.98117719999999
F40.7332426
tp1444
I7
s(F-73.9929789
F40.7138298
tp1445
I3
s(F-73.9781802
F40.7392146
tp1446
I1
s(F-73.99667640000001
F40.7269325
tp1447
I12
s(F-73.986237
F40.6998509
tp1448
I12
s(F-73.9942583
F40.7284285
tp1449
I12
s(F-73.97720090000001
F40.7634391
tp1450
I6
s(F-74.0036241
F40.7067555
tp1451
I4
s(F-73.9963183
F40.7534056
tp1452
I3
s(F-73.99486449999999
F40.7159024
tp1453
I9
s(F-73.9961094
F40.7681592
tp1454
I5
s(F-73.98233909999999
F40.7458336
tp1455
I7
s(F-74.00915789999999
F40.7161811
tp1456
I2
s(F-73.9625488
F40.7125177
tp1457
I1
s(F-74.0163227
F40.7100808
tp1458
I8
s(F-73.9830125
F40.74448
tp1459
I12
s(F-74.0020674
F40.7081787
tp1460
I5
s(F-74.01709939999999
F40.7135526
tp1461
I4
s(F-73.9804601
F40.699748
tp1462
I6
s(F-73.9921629
F40.7591092
tp1463
I11
s(F-73.9886277
F40.7682692
tp1464
I7
s(F-73.9862263
F40.7346104
tp1465
I11
s(F-73.9911807
F40.7173476
tp1466
I4
s(F-74.00737029999999
F40.7335607
tp1467
I20
s(F-74.0014547
F40.70786349999999
tp1468
I3
s(F-73.9979008
F40.7293259
tp1469
I9
s(F-73.9783554
F40.6878803
tp1470
I3
s(F-74.00622229999999
F40.7231324
tp1471
I5
s(F-73.9884998
F40.7641329
tp1472
I1
s(F-73.98488379999999
F40.7476908
tp1473
I11
s(F-73.9647894
F40.75575449999999
tp1474
I2
s(F-73.9758866
F40.7447677
tp1475
I4
s(F-73.9684319
F40.7082703
tp1476
I1
s(F-73.98381239999999
F40.6948376
tp1477
I2
s(F-73.9890388
F40.7437953
tp1478
I20
s(F-74.0089756
F40.7040867
tp1479
I2
s(F-74.0029836
F40.7342534
tp1480
I4
s(F-74.0029504
F40.7233521
tp1481
I11
s(F-74.0051955
F40.7513833
tp1482
I16
s(F-73.9965002
F40.7101671
tp1483
I12
s(F-73.97356010000001
F40.6917124
tp1484
I7
s(F-73.987111
F40.7659819
tp1485
I7
s(F-73.9900291
F40.7202112
tp1486
I10
s(F-73.9672559
F40.7041798
tp1487
I10
s(F-73.99425120000001
F40.7116012
tp1488
I1
s(F-74.0070847
F40.728767
tp1489
I1
s(F-73.9805925
F40.7337223
tp1490
I19
s(F-74.00632159999999
F40.7337243
tp1491
I6
s(F-73.957998
F40.6943575
tp1492
I2
s(F-74.0132849
F40.70454
tp1493
I14
s(F-73.9838989
F40.7542815
tp1494
I1
s(F-74.0013326
F40.7072692
tp1495
I2
s(F-74.01585639999999
F40.7115842
tp1496
I2
s(F-73.9820014
F40.7691556
tp1497
I15
s(F-73.9763036
F40.74824
tp1498
I4
s(F-74.0079981
F40.7518903
tp1499
I1
s(F-73.9996741
F40.7340598
tp1500
I8
s(F-74.000275
F40.742839
tp1501
I7
s(F-73.9839921
F40.7138628
tp1502
I1
s(F-73.975144
F40.7186922
tp1503
I2
s(F-73.9775568
F40.7520594
tp1504
I35
s(F-73.9719516
F40.7431673
tp1505
I5
s(F-74.0026214
F40.7248988
tp1506
I18
s(F-73.9850962
F40.76368009999999
tp1507
I14
s(F-74.0025083
F40.7193492
tp1508
I4
s(F-73.97493709999999
F40.6897052
tp1509
I2
s(F-73.981943
F40.7194763
tp1510
I3
s(F-73.9912475
F40.7603676
tp1511
I6
s(F-74.0047919
F40.7083979
tp1512
I2
s(F-73.993054
F40.701137
tp1513
I1
s(F-73.960319
F40.6903475
tp1514
I2
s(F-73.9862725
F40.692196
tp1515
I6
s(F-73.9734239
F40.7577598
tp1516
I1
s(F-73.9735002
F40.6979174
tp1517
I2
s(F-73.9843126
F40.7698732
tp1518
I1
s(F-74.00230359999999
F40.7452271
tp1519
I32
s(F-73.9718571
F40.7629725
tp1520
I1
s(F-73.9814387
F40.7325587
tp1521
I7
s(F-74.0059426
F40.7369194
tp1522
I11
s(F-73.9538018
F40.6932267
tp1523
I2
s(F-73.99504739999999
F40.71586629999999
tp1524
I4
s(F-73.9993322
F40.7159175
tp1525
I6
s(F-74.0068919
F40.7055399
tp1526
I2
s(F-74.00589889999999
F40.7147048
tp1527
I1
s(F-73.9588471
F40.6782852
tp1528
I1
s(F-73.956356
F40.6908
tp1529
I1
s(F-73.9924023
F40.7249161
tp1530
I23
s(F-73.9795091
F40.686899
tp1531
I2
s(F-73.991281
F40.73244589999999
tp1532
I4
s(F-73.967607
F40.756132
tp1533
I9
s(F-73.9812832
F40.72077530000001
tp1534
I15
s(F-73.9999382
F40.69183839999999
tp1535
I1
s(F-73.983049
F40.6984465
tp1536
I1
s(F-73.9851712
F40.7135146
tp1537
I4
s(F-73.99622889999999
F40.7091939
tp1538
I2
s(F-74.00274089999999
F40.70722
tp1539
I1
s(F-73.9852944
F40.7236548
tp1540
I6
s(F-73.9776943
F40.7340616
tp1541
I7
s(F-74.01012450000002
F40.7324491
tp1542
I34
s(F-73.9590283
F40.6994152
tp1543
I2
s(F-73.9848693
F40.7281724
tp1544
I15
s(F-73.9925852
F40.7124596
tp1545
I11
s(F-73.981403
F40.6879536
tp1546
I1
s(F-73.98445219999999
F40.7287487
tp1547
I15
s(F-73.97798499999999
F40.736658
tp1548
I7
s(F-73.97386449999999
F40.7313069
tp1549
I4
s(F-73.9980381
F40.7352777
tp1550
I7
s(F-73.9914232
F40.72983
tp1551
I4
s(F-74.0098182
F40.7374719
tp1552
I1
s(F-74.0047767
F40.7346503
tp1553
I2
s(F-73.9950281
F40.7159177
tp1554
I13
s(F-73.993331
F40.69238199999999
tp1555
I1
s(F-74.00740019999999
F40.7051717
tp1556
I4
s(F-73.9766952
F40.7393956
tp1557
I9
s(F-73.9917313
F40.748982
tp1558
I15
s(F-73.99897229999999
F40.7280718
tp1559
I12
s(F-74.0035456
F40.736204
tp1560
I1
s(F-73.9963803
F40.7322455
tp1561
I2
s(F-73.9970268
F40.7365174
tp1562
I8
s(F-73.9819048
F40.7629724
tp1563
I6
s(F-73.963415
F40.7576475
tp1564
I3
s(F-73.98163269999999
F40.724462
tp1565
I3
s(F-73.9831142
F40.73483400000001
tp1566
I4
s(F-73.9902401
F40.7281055
tp1567
I15
s(F-73.977436
F40.7537182
tp1568
I14
s(F-73.9808889
F40.7333147
tp1569
I6
s(F-73.9864169
F40.7402137
tp1570
I6
s(F-73.98070729999999
F40.69831360000001
tp1571
I1
s(F-73.99279779999999
F40.742903
tp1572
I1
s(F-73.9825906
F40.7542034
tp1573
I1
s(F-73.9666835
F40.7573799
tp1574
I7
s(F-74.00640410000001
F40.7051792
tp1575
I2
s(F-73.9979778
F40.7127261
tp1576
I4
s(F-73.9795317
F40.7397731
tp1577
I2
s(F-73.97685589999999
F40.7180967
tp1578
I2
s(F-73.99994350000001
F40.7165482
tp1579
I2
s(F-73.9973553
F40.7207061
tp1580
I1
s(F-73.9837131
F40.72214020000001
tp1581
I8
s(F-73.9851427
F40.7137542
tp1582
I1
s(F-73.98829309999999
F40.73463479999999
tp1583
I12
s(F-73.9782214
F40.7308188
tp1584
I1
s(F-73.98977909999999
F40.69992
tp1585
I3
s(F-74.0104856
F40.7339748
tp1586
I1
s(F-73.9707145
F40.7582531
tp1587
I3
s(F-73.99207899999999
F40.754091
tp1588
I12
s(F-73.9917517
F40.7185858
tp1589
I1
s(F-73.98722
F40.6937821
tp1590
I10
s(F-73.9804096
F40.7425772
tp1591
I5
s(F-73.9928188
F40.7683954
tp1592
I4
s(F-73.995914
F40.691416
tp1593
I7
s(F-73.9752688
F40.7552916
tp1594
I4
s(F-74.0069219
F40.7191678
tp1595
I1
s(F-74.0046598
F40.7249175
tp1596
I3
s(F-73.9749513
F40.7551484
tp1597
I4
s(F-73.97352029999999
F40.6959117
tp1598
I1
s(F-73.9775914
F40.7148876
tp1599
I6
s(F-74.009014
F40.7069205
tp1600
I2
s(F-74.0167665
F40.7057205
tp1601
I8
s(F-73.9875868
F40.765359
tp1602
I15
s(F-73.9572702
F40.6892127
tp1603
I5
s(F-74.0032397
F40.7489821
tp1604
I18
s(F-73.98406620000002
F40.6880544
tp1605
I2
s(F-73.98917019999999
F40.7430282
tp1606
I6
s(F-73.9824403
F40.6947804
tp1607
I2
s(F-73.9931644
F40.7628049
tp1608
I10
s(F-73.9679761
F40.7513611
tp1609
I2
s(F-73.9825585
F40.7164503
tp1610
I6
s(F-73.9937688
F40.725655
tp1611
I9
s(F-74.0104107
F40.7090896
tp1612
I15
s(F-73.9996201
F40.7310465
tp1613
I44
s(F-73.9876189
F40.7351982
tp1614
I11
s(F-73.9961659
F40.6909052
tp1615
I6
s(F-73.9969256
F40.7120794
tp1616
I7
s(F-73.956403
F40.684799
tp1617
I2
s(F-73.980327
F40.7344133
tp1618
I4
s(F-74.0038325
F40.7532593
tp1619
I3
s(F-73.9842137
F40.71524
tp1620
I3
s(F-74.01332529999999
F40.7050362
tp1621
I1
s(F-73.9718501
F40.7432199
tp1622
I6
s(F-73.99325660000001
F40.7677767
tp1623
I4
s(F-73.9796734
F40.6825055
tp1624
I1
s(F-73.96718609999999
F40.7042618
tp1625
I10
s(F-73.9871067
F40.6901721
tp1626
I2
s(F-74.0092281
F40.7046833
tp1627
I3
s(F-73.98419640000002
F40.6930667
tp1628
I3
s(F-74.0045528
F40.7127025
tp1629
I14
s(F-73.98184359999999
F40.7245511
tp1630
I2
s(F-73.98356559999999
F40.6887901
tp1631
I5
s(F-73.9808712
F40.713504
tp1632
I1
s(F-73.9678144
F40.7521087
tp1633
I5
s(F-74.00236919999999
F40.7265019
tp1634
I5
s(F-73.9806821
F40.7509008
tp1635
I1
s(F-73.9730969
F40.6857765
tp1636
I3
s(F-74.000907
F40.7257812
tp1637
I23
s(F-73.983822
F40.765418
tp1638
I11
s(F-74.0083807
F40.716588
tp1639
I1
s(F-73.98143879999999
F40.7143619
tp1640
I2
s(F-73.9900315
F40.6963307
tp1641
I7
s(F-73.99147479999999
F40.7007056
tp1642
I1
s(F-73.9848094
F40.7107195
tp1643
I7
s(F-73.9698749
F40.6978401
tp1644
I3
s(F-73.9672106
F40.7610054
tp1645
I9
s(F-74.002927
F40.7270823
tp1646
I12
s(F-73.9879826
F40.7498844
tp1647
I11
s(F-73.9847019
F40.702347
tp1648
I1
s(F-73.997367
F40.729952
tp1649
I23
s(F-73.97795289999999
F40.6850938
tp1650
I5
s(F-74.00102059999999
F40.7074452
tp1651
I3
s(F-73.98990239999999
F40.7344163
tp1652
I29
s(F-73.9998762
F40.72699859999999
tp1653
I22
s(F-74.0051039
F40.7318564
tp1654
I2
s(F-73.9982191
F40.7210891
tp1655
I5
s(F-73.982759
F40.7633358
tp1656
I1
s(F-73.99587369999999
F40.7386869
tp1657
I1
s(F-73.95579819999999
F40.6802557
tp1658
I2
s(F-73.98626399999999
F40.6923604
tp1659
I6
s(F-73.9922306
F40.72125310000001
tp1660
I16
s(F-74.00161
F40.7261224
tp1661
I3
s(F-73.9722467
F40.7597239
tp1662
I4
s(F-74.0078237
F40.7090824
tp1663
I4
s(F-73.9652481
F40.7104599
tp1664
I2
s(F-73.9780301
F40.75141199999999
tp1665
I40
s(F-73.9919268
F40.7311726
tp1666
I16
s(F-74.00070300000002
F40.742254
tp1667
I3
s(F-73.98270230000001
F40.7567653
tp1668
I6
s(F-73.99197230000001
F40.7349116
tp1669
I18
s(F-73.9964382
F40.76747049999999
tp1670
I1
s(F-73.9949261
F40.7230063
tp1671
I18
s(F-74.0105538
F40.7091466
tp1672
I5
s(F-74.0034142
F40.7080746
tp1673
I1
s(F-74.0128434
F40.7024346
tp1674
I8
s(F-73.9712141
F40.7551895
tp1675
I1
s(F-74.00260469999999
F40.7336421
tp1676
I13
s(F-73.9658864
F40.7128952
tp1677
I4
s(F-73.9900516
F40.746657
tp1678
I1
s(F-73.989793
F40.7572276
tp1679
I29
s(F-74.00538780000001
F40.7409463
tp1680
I21
s(F-74.0037815
F40.706915
tp1681
I7
s(F-73.9900339
F40.7327314
tp1682
I17
s(F-73.9902365
F40.7144054
tp1683
I1
s(F-73.9836763
F40.7620705
tp1684
I9
s(F-73.9737595
F40.76441459999999
tp1685
I17
s(F-73.9805563
F40.7164554
tp1686
I1
s(F-73.9828256
F40.7634871
tp1687
I5
s(F-74.0049664
F40.7353013
tp1688
I10
s(F-74.0127661
F40.7171204
tp1689
I1
s(F-74.0059769
F40.7358441
tp1690
I1
s(F-73.9906737
F40.7250603
tp1691
I7
s(F-73.96548469999999
F40.7104879
tp1692
I2
s(F-73.98160159999999
F40.7521042
tp1693
I11
s(F-74.0040214
F40.7145589
tp1694
I2
s(F-73.9846144
F40.7592009
tp1695
I3
s(F-74.0025075
F40.7333015
tp1696
I3
s(F-74.0048032
F40.7124876
tp1697
I31
s(F-73.9866954
F40.7339733
tp1698
I5
s(F-73.9948189
F40.7184566
tp1699
I1
s(F-73.991556
F40.7497096
tp1700
I5
s(F-73.9610525
F40.7104295
tp1701
I6
s(F-74.00201899999999
F40.740444
tp1702
I13
s(F-74.0024845
F40.7115934
tp1703
I7
s(F-73.9831044
F40.6997882
tp1704
I4
s(F-73.96775250000002
F40.6977541
tp1705
I7
s(F-73.9921059
F40.7108747
tp1706
I1
s(F-73.988378
F40.7591625
tp1707
I23
s(F-73.9861066
F40.7622891
tp1708
I3
s(F-73.9874952
F40.7245817
tp1709
I10
s(F-73.9714188
F40.7438436
tp1710
I9
s(F-73.98055289999999
F40.7295805
tp1711
I18
s(F-74.005957
F40.7244181
tp1712
I14
s(F-73.9729126
F40.7616436
tp1713
I4
s(F-73.97837
F40.752416
tp1714
I13
s(F-73.98309499999999
F40.7266662
tp1715
I2
s(F-73.98482899999999
F40.68693
tp1716
I1
s(F-73.9789551
F40.7121347
tp1717
I2
s(F-73.9848652
F40.76013469999999
tp1718
I28
s(F-74.00249
F40.7551367
tp1719
I1
s(F-73.97920979999999
F40.7154389
tp1720
I2
s(F-73.9990675
F40.7200506
tp1721
I5
s(F-74.00091840000002
F40.7117066
tp1722
I7
s(F-73.9715136
F40.7438584
tp1723
I10
s(F-73.9799752
F40.7605396
tp1724
I3
s(F-73.97303939999999
F40.7242595
tp1725
I37
s(F-73.982069
F40.732017
tp1726
I10
s(F-73.9886954
F40.7141423
tp1727
I6
s(F-73.9869275
F40.7128537
tp1728
I5
s(F-73.985647
F40.762915
tp1729
I6
s(F-74.00795099999999
F40.7149347
tp1730
I9
s(F-74.01538479999999
F40.7158102
tp1731
I2
s(F-73.963589
F40.7138221
tp1732
I1
s(F-73.983515
F40.716341
tp1733
I11
s(F-74.0001351
F40.73044489999999
tp1734
I7
s(F-74.0086766
F40.732643
tp1735
I8
s(F-73.97123619999999
F40.7469242
tp1736
I18
s(F-73.97401839999999
F40.7313463
tp1737
I3
s(F-73.9998749
F40.7191684
tp1738
I7
s(F-74.0167058
F40.7057072
tp1739
I17
s(F-74.0131746
F40.7173143
tp1740
I14
s(F-73.98383079999999
F40.7261734
tp1741
I18
s(F-73.9924674
F40.7484708
tp1742
I13
s(F-73.99711040000001
F40.7127994
tp1743
I1
s(F-73.9894735
F40.7301174
tp1744
I3
s(F-73.9733341
F40.6932674
tp1745
I1
s(F-74.0104621
F40.7114848
tp1746
I3
s(F-73.9797315
F40.7228996
tp1747
I5
s(F-73.9988168
F40.7601632
tp1748
I1
s(F-73.9779801
F40.6852883
tp1749
I6
s(F-73.9999965
F40.748414
tp1750
I15
s(F-73.9861608
F40.720757
tp1751
I1
s(F-73.98144490000001
F40.7141531
tp1752
I4
s(F-74.0085718
F40.7423534
tp1753
I5
s(F-74.00605279999999
F40.70996
tp1754
I2
s(F-73.9840735
F40.754043
tp1755
I1
s(F-73.9873483
F40.6914618
tp1756
I11
s(F-73.9990333
F40.7304636
tp1757
I8
s(F-73.9901465
F40.7378063
tp1758
I4
s(F-73.9922895
F40.7345258
tp1759
I20
s(F-73.9967345
F40.711185
tp1760
I6
s(F-74.0088777
F40.7435057
tp1761
I17
s(F-73.97028619999999
F40.7597181
tp1762
I4
s(F-73.9680303
F40.759578
tp1763
I6
s(F-74.007538
F40.7328666
tp1764
I23
s(F-73.9839815
F40.6881789
tp1765
I3
s(F-73.98495230000002
F40.6984191
tp1766
I1
s(F-73.98292219999999
F40.7420182
tp1767
I2
s(F-73.9835317
F40.7145687
tp1768
I1
s(F-74.0016984
F40.7507577
tp1769
I9
s(F-73.9833806
F40.7166902
tp1770
I2
s(F-73.9751345
F40.7352898
tp1771
I2
s(F-73.9832631
F40.7627274
tp1772
I7
s(F-74.0066434
F40.7035924
tp1773
I5
s(F-73.9628658
F40.688558
tp1774
I1
s(F-74.00417180000001
F40.7476959
tp1775
I1
s(F-73.958356
F40.7132956
tp1776
I2
s(F-74.0132308
F40.7175365
tp1777
I16
s(F-73.9712074
F40.7442175
tp1778
I11
s(F-73.9543879
F40.6857797
tp1779
I1
s(F-73.97346499999999
F40.7636538
tp1780
I10
s(F-73.96606729999999
F40.7579257
tp1781
I6
s(F-73.9908651
F40.6950189
tp1782
I2
s(F-73.9846238
F40.7217846
tp1783
I4
s(F-74.0055605
F40.7368739
tp1784
I91
s(F-73.98512509999999
F40.6930894
tp1785
I2
s(F-73.9628534
F40.69807410000001
tp1786
I9
s(F-74.0045361
F40.7421744
tp1787
I98
s(F-74.00457709999999
F40.70640059999999
tp1788
I6
s(F-73.98674
F40.701536
tp1789
I5
s(F-74.0079436
F40.7237668
tp1790
I4
s(F-73.97732959999999
F40.7421167
tp1791
I3
s(F-73.987971
F40.7172121
tp1792
I6
s(F-73.9917371
F40.7351977
tp1793
I8
s(F-73.9770106
F40.7428877
tp1794
I6
s(F-73.9622157
F40.6938761
tp1795
I2
s(F-73.9905273
F40.7402522
tp1796
I20
s(F-73.9780609
F40.7365089
tp1797
I6
s(F-73.982669
F40.7394962
tp1798
I3
s(F-74.0010242
F40.7545485
tp1799
I2
s(F-73.9888497
F40.6961114
tp1800
I1
s(F-73.9840123
F40.7293534
tp1801
I19
s(F-73.9851274
F40.71303959999999
tp1802
I6
s(F-73.9649254
F40.68847480000001
tp1803
I1
s(F-74.00076849999999
F40.6919015
tp1804
I7
s(F-73.9925927
F40.7188482
tp1805
I4
s(F-74.00511929999999
F40.7569542
tp1806
I3
s(F-73.97671749999999
F40.7650083
tp1807
I1
s(F-73.97314399999999
F40.7485249
tp1808
I5
s(F-73.9798339
F40.6866408
tp1809
I4
s(F-73.9902283
F40.7319459
tp1810
I9
s(F-73.9903946
F40.7312538
tp1811
I10
s(F-73.9604365
F40.7153113
tp1812
I1
s(F-74.0068004
F40.721871
tp1813
I1
s(F-73.9910974
F40.7300201
tp1814
I4
s(F-74.0088415
F40.7138064
tp1815
I1
s(F-73.9864051
F40.75170019999999
tp1816
I3
s(F-74.0072583
F40.7538612
tp1817
I1
s(F-74.00586609999999
F40.7402642
tp1818
I10
s(F-73.9785306
F40.7287453
tp1819
I10
s(F-74.0079785
F40.742029
tp1820
I10
s(F-73.9777306
F40.7422539
tp1821
I4
s(F-74.00725469999999
F40.7434653
tp1822
I2
s(F-73.985072
F40.7477694
tp1823
I13
s(F-73.9781429
F40.76303
tp1824
I4
s(F-73.99095969999999
F40.7396658
tp1825
I4
s(F-73.9902113
F40.7281438
tp1826
I14
s(F-73.9814478
F40.71421220000001
tp1827
I4
s(F-73.9842943
F40.7647976
tp1828
I13
s(F-74.00805729999999
F40.7468927
tp1829
I2
s(F-73.98076549999999
F40.747705
tp1830
I2
s(F-73.99758700000001
F40.7140518
tp1831
I5
s(F-74.000528
F40.73232489999999
tp1832
I4
s(F-74.0014265
F40.7310719
tp1833
I3
s(F-73.9865935
F40.7006356
tp1834
I6
s(F-74.01035139999999
F40.7188044
tp1835
I2
s(F-73.9853969
F40.7373119
tp1836
I11
s(F-73.9847753
F40.7144852
tp1837
I4
s(F-73.9714656
F40.7577491
tp1838
I1
s(F-73.98749389999999
F40.7415346
tp1839
I13
s(F-73.9912829
F40.6963559
tp1840
I12
s(F-74.0058348
F40.7365564
tp1841
I8
s(F-73.98744549999999
F40.7182434
tp1842
I1
s(F-74.0048678
F40.7416239
tp1843
I1
s(F-74.0077762
F40.7117069
tp1844
I12
s(F-73.9865473
F40.737027
tp1845
I5
s(F-73.9725691
F40.6916786
tp1846
I1
s(F-74.004457
F40.7422925
tp1847
I21
s(F-73.9896275
F40.7141144
tp1848
I16
s(F-74.0083871
F40.74398
tp1849
I3
s(F-74.0088267
F40.7160212
tp1850
I6
s(F-73.999734
F40.7191037
tp1851
I9
s(F-73.9970311
F40.714067
tp1852
I6
s(F-73.99324849999999
F40.7024717
tp1853
I7
s(F-73.980207
F40.754915
tp1854
I11
s(F-73.9939587
F40.7672333
tp1855
I4
s(F-73.9691855
F40.6842116
tp1856
I3
s(F-73.9851291
F40.6937121
tp1857
I2
s(F-74.00557049999999
F40.7203382
tp1858
I6
s(F-73.9600402
F40.6888872
tp1859
I1
s(F-74.0027918
F40.7496009
tp1860
I11
s(F-74.0043207
F40.7248734
tp1861
I3
s(F-73.9840269
F40.7539373
tp1862
I1
s(F-73.962218
F40.71785999999999
tp1863
I5
s(F-73.99132
F40.7194357
tp1864
I1
s(F-74.0070236
F40.7182589
tp1865
I5
s(F-73.9894041
F40.7359491
tp1866
I1
s(F-73.9822648
F40.7313768
tp1867
I5
s(F-73.9827565
F40.6899852
tp1868
I5
s(F-73.999185
F40.73924299999999
tp1869
I6
s(F-73.993736
F40.69153499999999
tp1870
I5
s(F-73.9678144
F40.6879823
tp1871
I2
s(F-73.973501
F40.6958132
tp1872
I1
s(F-74.00816429999999
F40.7046326
tp1873
I1
s(F-74.0056153
F40.7121505
tp1874
I11
s(F-73.9944555
F40.7169698
tp1875
I2
s(F-73.9840914
F40.7375374
tp1876
I2
s(F-73.9758557
F40.74885949999999
tp1877
I12
s(F-73.9957763
F40.73052089999999
tp1878
I13
s(F-73.99130559999999
F40.7009929
tp1879
I3
s(F-73.992528
F40.753474
tp1880
I1
s(F-73.97808580000002
F40.720893
tp1881
I1
s(F-74.0005843
F40.6919727
tp1882
I7
s(F-74.00741099999999
F40.7538963
tp1883
I2
s(F-73.9929789
F40.75285700000001
tp1884
I2
s(F-74.00786169999999
F40.7467878
tp1885
I20
s(F-73.987557
F40.7382241
tp1886
I10
s(F-73.99436010000001
F40.7509391
tp1887
I37
s(F-73.99699369999999
F40.7165477
tp1888
I3
s(F-73.9924185
F40.6942868
tp1889
I4
s(F-73.99417249999999
F40.7157998
tp1890
I5
s(F-73.9832687
F40.6948088
tp1891
I3
s(F-73.9933363
F40.7332923
tp1892
I6
s(F-74.0086398
F40.7114005
tp1893
I2
s(F-73.9964723
F40.7236669
tp1894
I21
s(F-73.9777373
F40.7398305
tp1895
I1
s(F-73.9679338
F40.7514164
tp1896
I25
s(F-73.9896202
F40.7472675
tp1897
I5
s(F-73.9794713
F40.7355931
tp1898
I36
s(F-73.9707907
F40.7517421
tp1899
I6
s(F-73.9838884
F40.71314950000001
tp1900
I1
s(F-74.00232609999999
F40.7216799
tp1901
I9
s(F-74.0004838
F40.7110244
tp1902
I15
s(F-74.0016034
F40.7077927
tp1903
I5
s(F-74.0102845
F40.7385065
tp1904
I6
s(F-73.9677512
F40.6976915
tp1905
I6
s(F-73.99138959999999
F40.7390814
tp1906
I1
s(F-74.0002913
F40.732209
tp1907
I5
s(F-73.9836926
F40.7439587
tp1908
I4
s(F-74.008403
F40.7143685
tp1909
I10
s(F-73.99273889999999
F40.698113
tp1910
I1
s(F-73.9912422
F40.7512823
tp1911
I1
s(F-74.0077244
F40.7042514
tp1912
I1
s(F-73.9973176
F40.7571135
tp1913
I1
s(F-73.9868166
F40.7297528
tp1914
I21
s(F-73.98863469999999
F40.695012
tp1915
I4
s(F-74.0002877
F40.7176202
tp1916
I1
s(F-73.9757709
F40.7330995
tp1917
I8
s(F-73.9759681
F40.7237741
tp1918
I5
s(F-74.0006688
F40.762721
tp1919
I9
s(F-73.9809049
F40.73788870000001
tp1920
I10
s(F-73.97134419999999
F40.7609779
tp1921
I1
s(F-73.9759801
F40.6840798
tp1922
I2
s(F-73.9950684
F40.7288188
tp1923
I7
s(F-73.9938653
F40.7027348
tp1924
I6
s(F-73.999422
F40.744009
tp1925
I28
s(F-73.98704719999999
F40.7251936
tp1926
I6
s(F-73.9953307
F40.7448325
tp1927
I16
s(F-73.98980259999999
F40.6995042
tp1928
I3
s(F-74.0059515
F40.7452343
tp1929
I16
s(F-73.99157439999999
F40.700503
tp1930
I1
s(F-74.0063795
F40.7446557
tp1931
I1
s(F-73.9897263
F40.7007381
tp1932
I4
s(F-74.0004677
F40.6896554
tp1933
I1
s(F-74.0014727
F40.741809
tp1934
I16
s(F-74.0052152
F40.7206402
tp1935
I13
s(F-74.004498
F40.74694909999999
tp1936
I13
s(F-73.9738742
F40.6932938
tp1937
I7
s.