(dp0
Vconfident
p1
I01
sVvenues
p2
(lp3
(dp4
Vverified
p5
I00
sVname
p6
VBedford-Stuyvesant YMCA
p7
sVreferralId
p8
Vv-1459670938
p9
sVvenueChains
p10
(lp11
sVurl
p12
Vhttp://www.ymcanyc.org/bedford-stuyvesant
p13
sVhereNow
p14
(dp15
Vcount
p16
I0
sVgroups
p17
(lp18
sVsummary
p19
VNobody here
p20
ssVspecials
p21
(dp22
Vcount
p23
I0
sVitems
p24
(lp25
ssVallowMenuUrlEdit
p26
I01
sVcontact
p27
(dp28
Vphone
p29
V7188574472
p30
sVtwitter
p31
Vymcanyc
p32
sVformattedPhone
p33
V(718) 857-4472
p34
ssVlocation
p35
(dp36
Vdistance
p37
I27
sVcity
p38
VBrooklyn
p39
sVcc
p40
VUS
p41
sVcountry
p42
VUnited States
p43
sVpostalCode
p44
V11216
p45
sVstate
p46
VNY
p47
sVformattedAddress
p48
(lp49
V1121 Bedford Ave
p50
aVBrooklyn, NY 11216
p51
aVUnited States
p52
asVaddress
p53
V1121 Bedford Ave
p54
sVlat
p55
F40.68513617159344
sVlng
p56
F-73.95412999530078
ssVstats
p57
(dp58
VtipCount
p59
I52
sVcheckinsCount
p60
I17056
sVusersCount
p61
I1169
ssVid
p62
V49d7bda4f964a520565d1fe3
p63
sVcategories
p64
(lp65
(dp66
VpluralName
p67
VGyms
p68
sVprimary
p69
I01
sVname
p70
VGym
p71
sVshortName
p72
VGym
p73
sVid
p74
V4bf58dd8d48988d176941735
p75
sVicon
p76
(dp77
Vprefix
p78
Vhttps://ss3.4sqi.net/img/categories_v2/building/gym_
p79
sVsuffix
p80
V.png
p81
ssasa(dp82
VhasMenu
p83
I01
sVverified
p84
I00
sVname
p85
VBedford-Stuyvesant
p86
sVreferralId
p87
Vv-1459670938
p88
sVvenueChains
p89
(lp90
sVmenu
p91
(dp92
Vurl
p93
Vhttps://foursquare.com/v/bedfordstuyvesant/4dab7425fa8cc764974da770/menu
p94
sVmobileUrl
p95
Vhttps://foursquare.com/v/4dab7425fa8cc764974da770/device_menu
p96
sVtype
p97
VPrices
p98
sVanchor
p99
VView Prices
p100
sVlabel
p101
VPrices
p102
ssVhereNow
p103
(dp104
Vcount
p105
I1
sVgroups
p106
(lp107
(dp108
Vcount
p109
I1
sVitems
p110
(lp111
sVtype
p112
Vothers
p113
sVname
p114
VOther people here
p115
sasVsummary
p116
VOne other person is here
p117
ssVspecials
p118
(dp119
Vcount
p120
I0
sVitems
p121
(lp122
ssVcontact
p123
(dp124
sVlocation
p125
(dp126
Vdistance
p127
I1130
sVcity
p128
VBrooklyn
p129
sVcc
p130
VUS
p131
sVcountry
p132
VUnited States
p133
sVpostalCode
p134
V11221
p135
sVstate
p136
VNY
p137
sVformattedAddress
p138
(lp139
VBrooklyn, NY 11221
p140
aVUnited States
p141
asVlat
p142
F40.68571485984486
sVlng
p143
F-73.94043445587158
ssVstats
p144
(dp145
VtipCount
p146
I60
sVcheckinsCount
p147
I38133
sVusersCount
p148
I5742
ssVid
p149
V4dab7425fa8cc764974da770
p150
sVcategories
p151
(lp152
(dp153
VpluralName
p154
VNeighborhoods
p155
sVprimary
p156
I01
sVname
p157
VNeighborhood
p158
sVshortName
p159
VNeighborhood
p160
sVid
p161
V4f2a25ac4b909258e854f55f
p162
sVicon
p163
(dp164
Vprefix
p165
Vhttps://ss3.4sqi.net/img/categories_v2/parks_outdoors/neighborhood_
p166
sVsuffix
p167
V.png
p168
ssasa(dp169
Vverified
p170
I00
sVname
p171
VBabadook Palace
p172
sVreferralId
p173
Vv-1459670938
p174
sVvenueChains
p175
(lp176
sVhereNow
p177
(dp178
Vcount
p179
I1
sVgroups
p180
(lp181
(dp182
Vcount
p183
I1
sVitems
p184
(lp185
sVtype
p186
Vothers
p187
sVname
p188
VOther people here
p189
sasVsummary
p190
VOne other person is here
p191
ssVspecials
p192
(dp193
Vcount
p194
I0
sVitems
p195
(lp196
ssVallowMenuUrlEdit
p197
I01
sVcontact
p198
(dp199
sVlocation
p200
(dp201
Vdistance
p202
I120
sVcity
p203
VBrooklyn
p204
sVcc
p205
VUS
p206
sVcountry
p207
VUnited States
p208
sVstate
p209
VNY
p210
sVformattedAddress
p211
(lp212
VBrooklyn, NY
p213
aVUnited States
p214
asVlat
p215
F40.684625136022575
sVlng
p216
F-73.9525629672634
ssVstats
p217
(dp218
VtipCount
p219
I1
sVcheckinsCount
p220
I43
sVusersCount
p221
I3
ssVid
p222
V54fce5b4498e7f86ee449f53
p223
sVcategories
p224
(lp225
(dp226
VpluralName
p227
VKaraoke Bars
p228
sVprimary
p229
I01
sVname
p230
VKaraoke Bar
p231
sVshortName
p232
VKaraoke
p233
sVid
p234
V4bf58dd8d48988d120941735
p235
sVicon
p236
(dp237
Vprefix
p238
Vhttps://ss3.4sqi.net/img/categories_v2/nightlife/karaoke_
p239
sVsuffix
p240
V.png
p241
ssasa(dp242
Vverified
p243
I01
sVname
p244
VCiti Bike Station
p245
sVreferralId
p246
Vv-1459670938
p247
sVurl
p248
Vhttp://www.citibikenyc.com
p249
sVstoreId
p250
V
p251
sVhereNow
p252
(dp253
Vcount
p254
I0
sVgroups
p255
(lp256
sVsummary
p257
VNobody here
p258
ssVspecials
p259
(dp260
Vcount
p261
I1
sVitems
p262
(lp263
(dp264
Vredemption
p265
Vwebview
p266
sVdescription
p267
g251
sVunlocked
p268
I01
sVphoto
p269
(dp270
Vsuffix
p271
V/53033335_Q-aHkpRFHV_Bd3isEdUuFhlp_940yvNsAfYDCsPKJvY.jpg
p272
sVheight
p273
I2448
sVwidth
p274
I2448
sVprefix
p275
Vhttps://irs2.4sqi.net/img/general/
p276
sVid
p277
V55faf15d498e5c55c6ea7b57
p278
sVcreatedAt
p279
I1442509149
ssVtitle
p280
VSpecial
p281
sVfinePrint
p282
VValid on new memberships only. Offer valid until 9/30/15.
p283
sVpage
p284
(dp285
Vbio
p286
g251
sVfirstName
p287
VCiti Bike
p288
sVgender
p289
Vnone
p290
sVlists
p291
(dp292
Vgroups
p293
(lp294
(dp295
Vcount
p296
I2
sVitems
p297
(lp298
sVtype
p299
Vcreated
p300
sassVhomeCity
p301
VNew York, NY
p302
sVcontact
p303
(dp304
Vtwitter
p305
Vcitibikenyc
p306
ssVphoto
p307
(dp308
Vprefix
p309
Vhttps://irs1.4sqi.net/img/user/
p310
sVsuffix
p311
V/RRKIMIYP1A2IFUFG.jpg
p312
ssVtips
p313
(dp314
Vcount
p315
I81
ssVtype
p316
Vchain
p317
sVid
p318
V53033335
p319
ssVstate
p320
Vunlocked
p321
sVinteraction
p322
(dp323
VentryUrl
p324
Vhttps://foursquare.com/device/specials/55faf15d498e3bc9cd6684d1?venueId=5165e337a62986a48735133f
p325
ssVprovider
p326
Vfoursquare
p327
sVmessage
p328
VWe're expanding! Join now and save $25 on membership: expansion.citibikenyc.com
p329
sVtype
p330
Vfrequency
p331
sVid
p332
V55faf15d498e3bc9cd6684d1
p333
sVicon
p334
Vdefault
p335
sassVvenueChains
p336
(lp337
(dp338
Vid
p339
V556ce010aceaff43eb044913
p340
sasVcontact
p341
(dp342
VfacebookUsername
p343
VCitibikeNYC
p344
sVtwitter
p345
Vcitibikenyc
p346
sVfacebook
p347
V300467000032022
p348
sVfacebookName
p349
VCiti Bike
p350
ssVlocation
p351
(dp352
Vdistance
p353
I0
sVcity
p354
VBrooklyn
p355
sVcc
p356
VUS
p357
sVcountry
p358
VUnited States
p359
sVstate
p360
VNY
p361
sVformattedAddress
p362
(lp363
VMonroe St & Bedford Av (Bedford Av)
p364
aVBrooklyn, NY
p365
aVUnited States
p366
asVcrossStreet
p367
VBedford Av
p368
sVaddress
p369
VMonroe St & Bedford Av
p370
sVlat
p371
F40.6851443
sVlng
p372
F-73.95380904
ssVstats
p373
(dp374
VtipCount
p375
I1
sVcheckinsCount
p376
I8
sVusersCount
p377
I6
ssVid
p378
V5165e337a62986a48735133f
p379
sVcategories
p380
(lp381
(dp382
VpluralName
p383
VBike Rentals / Bike Shares
p384
sVprimary
p385
I01
sVname
p386
VBike Rental / Bike Share
p387
sVshortName
p388
VBike
p389
sVid
p390
V4e4c9077bd41f78e849722f9
p391
sVicon
p392
(dp393
Vprefix
p394
Vhttps://ss3.4sqi.net/img/categories_v2/shops/bikeshop_
p395
sVsuffix
p396
V.png
p397
ssasa(dp398
Vverified
p399
I00
sVname
p400
VMTA B52 (Gates Ave. & Bedford Ave.)
p401
sVreferralId
p402
Vv-1459670938
p403
sVvenueChains
p404
(lp405
sVhereNow
p406
(dp407
Vcount
p408
I0
sVgroups
p409
(lp410
sVsummary
p411
VNobody here
p412
ssVspecials
p413
(dp414
Vcount
p415
I0
sVitems
p416
(lp417
ssVcontact
p418
(dp419
sVlocation
p420
(dp421
Vdistance
p422
I117
sVcc
p423
VUS
p424
sVcountry
p425
VUnited States
p426
sVstate
p427
VNew York
p428
sVformattedAddress
p429
(lp430
VNew York
p431
aVUnited States
p432
asVlat
p433
F40.686150915684124
sVlng
p434
F-73.95422183537754
ssVstats
p435
(dp436
VtipCount
p437
I1
sVcheckinsCount
p438
I706
sVusersCount
p439
I55
ssVid
p440
V4dda76857d8b32266436abe4
p441
sVcategories
p442
(lp443
(dp444
VpluralName
p445
VBus Stations
p446
sVprimary
p447
I01
sVname
p448
VBus Station
p449
sVshortName
p450
VBus Station
p451
sVid
p452
V4bf58dd8d48988d1fe931735
p453
sVicon
p454
(dp455
Vprefix
p456
Vhttps://ss3.4sqi.net/img/categories_v2/travel/busstation_
p457
sVsuffix
p458
V.png
p459
ssasa(dp460
Vverified
p461
I00
sVname
p462
VMetropolitan City Market
p463
sVreferralId
p464
Vv-1459670938
p465
sVvenueChains
p466
(lp467
sVhereNow
p468
(dp469
Vcount
p470
I0
sVgroups
p471
(lp472
sVsummary
p473
VNobody here
p474
ssVspecials
p475
(dp476
Vcount
p477
I0
sVitems
p478
(lp479
ssVallowMenuUrlEdit
p480
I01
sVcontact
p481
(dp482
sVlocation
p483
(dp484
Vdistance
p485
I53
sVcity
p486
VBrooklyn
p487
sVcc
p488
VUS
p489
sVcountry
p490
VUnited States
p491
sVpostalCode
p492
V11216
p493
sVstate
p494
VNY
p495
sVformattedAddress
p496
(lp497
V1142 Bedford Ave (Bedford Ave)
p498
aVBrooklyn, NY 11216
p499
aVUnited States
p500
asVcrossStreet
p501
VBedford Ave
p502
sVaddress
p503
V1142 Bedford Ave
p504
sVlat
p505
F40.68540861136777
sVlng
p506
F-73.95433663541206
ssVstats
p507
(dp508
VtipCount
p509
I18
sVcheckinsCount
p510
I2104
sVusersCount
p511
I403
ssVid
p512
V4e3a74fad4c05163b44fbeb9
p513
sVcategories
p514
(lp515
(dp516
VpluralName
p517
VGrocery Stores
p518
sVprimary
p519
I01
sVname
p520
VGrocery Store
p521
sVshortName
p522
VGrocery Store
p523
sVid
p524
V4bf58dd8d48988d118951735
p525
sVicon
p526
(dp527
Vprefix
p528
Vhttps://ss3.4sqi.net/img/categories_v2/shops/food_grocery_
p529
sVsuffix
p530
V.png
p531
ssasa(dp532
Vverified
p533
I00
sVname
p534
VBig Red
p535
sVreferralId
p536
Vv-1459670938
p537
sVvenueChains
p538
(lp539
sVhereNow
p540
(dp541
Vcount
p542
I0
sVgroups
p543
(lp544
sVsummary
p545
VNobody here
p546
ssVspecials
p547
(dp548
Vcount
p549
I0
sVitems
p550
(lp551
ssVcontact
p552
(dp553
sVlocation
p554
(dp555
Vdistance
p556
I43
sVcc
p557
VUS
p558
sVcountry
p559
VUnited States
p560
sVstate
p561
VNew York
p562
sVformattedAddress
p563
(lp564
VNew York
p565
aVUnited States
p566
asVlat
p567
F40.685426126160785
sVlng
p568
F-73.95415869532947
ssVstats
p569
(dp570
VtipCount
p571
I0
sVcheckinsCount
p572
I47
sVusersCount
p573
I5
ssVid
p574
V4e595cd1aeb7d78d9f768f73
p575
sVcategories
p576
(lp577
(dp578
VpluralName
p579
VProfessional & Other Places
p580
sVprimary
p581
I01
sVname
p582
VProfessional & Other Places
p583
sVshortName
p584
VProfessional
p585
sVid
p586
V4d4b7105d754a06375d81259
p587
sVicon
p588
(dp589
Vprefix
p590
Vhttps://ss3.4sqi.net/img/categories_v2/building/default_
p591
sVsuffix
p592
V.png
p593
ssasa(dp594
Vverified
p595
I00
sVname
p596
VBedford Academy High School
p597
sVreferralId
p598
Vv-1459670938
p599
sVvenueChains
p600
(lp601
sVhereNow
p602
(dp603
Vcount
p604
I0
sVgroups
p605
(lp606
sVsummary
p607
VNobody here
p608
ssVspecials
p609
(dp610
Vcount
p611
I0
sVitems
p612
(lp613
ssVcontact
p614
(dp615
sVlocation
p616
(dp617
Vdistance
p618
I46
sVcity
p619
VBrooklyn
p620
sVcc
p621
VUS
p622
sVcountry
p623
VUnited States
p624
sVpostalCode
p625
V11216
p626
sVstate
p627
VNY
p628
sVformattedAddress
p629
(lp630
V1119 Bedford Ave (Gates Avenue)
p631
aVBrooklyn, NY 11216
p632
aVUnited States
p633
asVcrossStreet
p634
VGates Avenue
p635
sVaddress
p636
V1119 Bedford Ave
p637
sVlat
p638
F40.68532259316011
sVlng
p639
F-73.95431367541062
ssVstats
p640
(dp641
VtipCount
p642
I0
sVcheckinsCount
p643
I245
sVusersCount
p644
I26
ssVid
p645
V4d791151f20c236a5deea441
p646
sVcategories
p647
(lp648
(dp649
VpluralName
p650
VHigh Schools
p651
sVprimary
p652
I01
sVname
p653
VHigh School
p654
sVshortName
p655
VHigh School
p656
sVid
p657
V4bf58dd8d48988d13d941735
p658
sVicon
p659
(dp660
Vprefix
p661
Vhttps://ss3.4sqi.net/img/categories_v2/building/school_
p662
sVsuffix
p663
V.png
p664
ssasa(dp665
Vverified
p666
I00
sVname
p667
VUdom Thai
p668
sVreferralId
p669
Vv-1459670938
p670
sVvenueChains
p671
(lp672
sVhereNow
p673
(dp674
Vcount
p675
I1
sVgroups
p676
(lp677
(dp678
Vcount
p679
I1
sVitems
p680
(lp681
sVtype
p682
Vothers
p683
sVname
p684
VOther people here
p685
sasVsummary
p686
VOne other person is here
p687
ssVspecials
p688
(dp689
Vcount
p690
I0
sVitems
p691
(lp692
ssVallowMenuUrlEdit
p693
I01
sVcontact
p694
(dp695
sVlocation
p696
(dp697
Vdistance
p698
I173
sVcity
p699
VBrooklyn
p700
sVcc
p701
VUS
p702
sVcountry
p703
VUnited States
p704
sVpostalCode
p705
V11216
p706
sVstate
p707
VNY
p708
sVformattedAddress
p709
(lp710
VWashington St.
p711
aVBrooklyn, NY 11216
p712
aVUnited States
p713
asVaddress
p714
VWashington St.
p715
sVlat
p716
F40.68444777851281
sVlng
p717
F-73.95564535098302
ssVstats
p718
(dp719
VtipCount
p720
I0
sVcheckinsCount
p721
I6
sVusersCount
p722
I6
ssVid
p723
V4c15562ea5eb76b03934c3b7
p724
sVcategories
p725
(lp726
(dp727
VpluralName
p728
VThai Restaurants
p729
sVprimary
p730
I01
sVname
p731
VThai Restaurant
p732
sVshortName
p733
VThai
p734
sVid
p735
V4bf58dd8d48988d149941735
p736
sVicon
p737
(dp738
Vprefix
p739
Vhttps://ss3.4sqi.net/img/categories_v2/food/thai_
p740
sVsuffix
p741
V.png
p742
ssasa(dp743
Vverified
p744
I00
sVname
p745
VBedford Beer
p746
sVreferralId
p747
Vv-1459670938
p748
sVvenueChains
p749
(lp750
sVhereNow
p751
(dp752
Vcount
p753
I0
sVgroups
p754
(lp755
sVsummary
p756
VNobody here
p757
ssVspecials
p758
(dp759
Vcount
p760
I0
sVitems
p761
(lp762
ssVallowMenuUrlEdit
p763
I01
sVcontact
p764
(dp765
Vphone
p766
V7188578626
p767
sVformattedPhone
p768
V(718) 857-8626
p769
ssVlocation
p770
(dp771
Vdistance
p772
I65
sVcity
p773
VBrooklyn
p774
sVcc
p775
VUS
p776
sVcountry
p777
VUnited States
p778
sVpostalCode
p779
V11216
p780
sVstate
p781
VNY
p782
sVformattedAddress
p783
(lp784
V1111 Bedford ave (btwn Gates Ave & Lexington Ave)
p785
aVBrooklyn, NY 11216
p786
aVUnited States
p787
asVcrossStreet
p788
Vbtwn Gates Ave & Lexington Ave
p789
sVaddress
p790
V1111 Bedford ave
p791
sVlat
p792
F40.685605432768604
sVlng
p793
F-73.95429645540774
ssVstats
p794
(dp795
VtipCount
p796
I1
sVcheckinsCount
p797
I28
sVusersCount
p798
I17
ssVid
p799
V4ca77f6a14c337043245ca3b
p800
sVcategories
p801
(lp802
(dp803
VpluralName
p804
VLiquor Stores
p805
sVprimary
p806
I01
sVname
p807
VLiquor Store
p808
sVshortName
p809
VLiquor Store
p810
sVid
p811
V4bf58dd8d48988d186941735
p812
sVicon
p813
(dp814
Vprefix
p815
Vhttps://ss3.4sqi.net/img/categories_v2/shops/food_liquor_
p816
sVsuffix
p817
V.png
p818
ssasa(dp819
Vverified
p820
I00
sVname
p821
VZack's House Of Australian Hoarding
p822
sVreferralId
p823
Vv-1459670938
p824
sVvenueChains
p825
(lp826
sVhereNow
p827
(dp828
Vcount
p829
I0
sVgroups
p830
(lp831
sVsummary
p832
VNobody here
p833
ssVspecials
p834
(dp835
Vcount
p836
I0
sVitems
p837
(lp838
ssVcontact
p839
(dp840
sVlocation
p841
(dp842
Vdistance
p843
I70
sVcity
p844
VBrooklyn
p845
sVcc
p846
VUS
p847
sVcountry
p848
VUnited States
p849
sVstate
p850
VNY
p851
sVformattedAddress
p852
(lp853
VBrooklyn, NY
p854
aVUnited States
p855
asVlat
p856
F40.68569385072235
sVlng
p857
F-73.95338953308688
ssVstats
p858
(dp859
VtipCount
p860
I0
sVcheckinsCount
p861
I5
sVusersCount
p862
I4
ssVid
p863
V51eaca2a498e6ce610279a1d
p864
sVcategories
p865
(lp866
(dp867
VpluralName
p868
VGeneral Entertainment
p869
sVprimary
p870
I01
sVname
p871
VGeneral Entertainment
p872
sVshortName
p873
VEntertainment
p874
sVid
p875
V4bf58dd8d48988d1f1931735
p876
sVicon
p877
(dp878
Vprefix
p879
Vhttps://ss3.4sqi.net/img/categories_v2/arts_entertainment/default_
p880
sVsuffix
p881
V.png
p882
ssasa(dp883
Vverified
p884
I00
sVname
p885
VQuality Hardware
p886
sVreferralId
p887
Vv-1459670938
p888
sVvenueChains
p889
(lp890
sVhereNow
p891
(dp892
Vcount
p893
I0
sVgroups
p894
(lp895
sVsummary
p896
VNobody here
p897
ssVspecials
p898
(dp899
Vcount
p900
I0
sVitems
p901
(lp902
ssVallowMenuUrlEdit
p903
I01
sVcontact
p904
(dp905
sVlocation
p906
(dp907
Vdistance
p908
I72
sVcity
p909
VBrooklyn
p910
sVcc
p911
VUS
p912
sVcountry
p913
VUnited States
p914
sVpostalCode
p915
V11216
p916
sVstate
p917
VNY
p918
sVformattedAddress
p919
(lp920
V1158 Bedford Ave (Monroe)
p921
aVBrooklyn, NY 11216
p922
aVUnited States
p923
asVcrossStreet
p924
VMonroe
p925
sVaddress
p926
V1158 Bedford Ave
p927
sVlat
p928
F40.68462876906376
sVlng
p929
F-73.95433663541206
ssVstats
p930
(dp931
VtipCount
p932
I0
sVcheckinsCount
p933
I23
sVusersCount
p934
I6
ssVid
p935
V4e0db417c65ba20da218697a
p936
sVcategories
p937
(lp938
(dp939
VpluralName
p940
VHardware Stores
p941
sVprimary
p942
I01
sVname
p943
VHardware Store
p944
sVshortName
p945
VHardware
p946
sVid
p947
V4bf58dd8d48988d112951735
p948
sVicon
p949
(dp950
Vprefix
p951
Vhttps://ss3.4sqi.net/img/categories_v2/shops/hardware_
p952
sVsuffix
p953
V.png
p954
ssasa(dp955
Vverified
p956
I00
sVname
p957
V147 Madison Street
p958
sVreferralId
p959
Vv-1459670938
p960
sVvenueChains
p961
(lp962
sVhereNow
p963
(dp964
Vcount
p965
I0
sVgroups
p966
(lp967
sVsummary
p968
VNobody here
p969
ssVspecials
p970
(dp971
Vcount
p972
I0
sVitems
p973
(lp974
ssVcontact
p975
(dp976
sVlocation
p977
(dp978
Vdistance
p979
I87
sVcity
p980
VBrooklyn
p981
sVcc
p982
VUS
p983
sVcountry
p984
VUnited States
p985
sVpostalCode
p986
V11216
p987
sVstate
p988
VNY
p989
sVformattedAddress
p990
(lp991
V147 Madison St
p992
aVBrooklyn, NY 11216
p993
aVUnited States
p994
asVaddress
p995
V147 Madison St
p996
sVlat
p997
F40.68482872036009
sVlng
p998
F-73.95285570973029
ssVstats
p999
(dp1000
VtipCount
p1001
I0
sVcheckinsCount
p1002
I6
sVusersCount
p1003
I6
ssVid
p1004
V4c428664cc410f474308ad61
p1005
sVcategories
p1006
(lp1007
(dp1008
VpluralName
p1009
VBuildings
p1010
sVprimary
p1011
I01
sVname
p1012
VBuilding
p1013
sVshortName
p1014
VBuilding
p1015
sVid
p1016
V4bf58dd8d48988d130941735
p1017
sVicon
p1018
(dp1019
Vprefix
p1020
Vhttps://ss3.4sqi.net/img/categories_v2/building/default_
p1021
sVsuffix
p1022
V.png
p1023
ssasa(dp1024
Vverified
p1025
I00
sVname
p1026
VHome Office (The Couch)
p1027
sVreferralId
p1028
Vv-1459670938
p1029
sVvenueChains
p1030
(lp1031
sVhereNow
p1032
(dp1033
Vcount
p1034
I0
sVgroups
p1035
(lp1036
sVsummary
p1037
VNobody here
p1038
ssVspecials
p1039
(dp1040
Vcount
p1041
I0
sVitems
p1042
(lp1043
ssVcontact
p1044
(dp1045
sVlocation
p1046
(dp1047
Vdistance
p1048
I86
sVcc
p1049
VUS
p1050
sVcountry
p1051
VUnited States
p1052
sVstate
p1053
VNew York
p1054
sVformattedAddress
p1055
(lp1056
VNew York
p1057
aVUnited States
p1058
asVlat
p1059
F40.685473
sVlng
p1060
F-73.954733
ssVstats
p1061
(dp1062
VtipCount
p1063
I0
sVcheckinsCount
p1064
I5
sVusersCount
p1065
I3
ssVid
p1066
V4e0a566d483bf14c25bdaf05
p1067
sVcategories
p1068
(lp1069
(dp1070
VpluralName
p1071
VOffices
p1072
sVprimary
p1073
I01
sVname
p1074
VOffice
p1075
sVshortName
p1076
VOffice
p1077
sVid
p1078
V4bf58dd8d48988d124941735
p1079
sVicon
p1080
(dp1081
Vprefix
p1082
Vhttps://ss3.4sqi.net/img/categories_v2/building/default_
p1083
sVsuffix
p1084
V.png
p1085
ssasa(dp1086
Vverified
p1087
I00
sVname
p1088
VStage One
p1089
sVreferralId
p1090
Vv-1459670938
p1091
sVvenueChains
p1092
(lp1093
sVhereNow
p1094
(dp1095
Vcount
p1096
I0
sVgroups
p1097
(lp1098
sVsummary
p1099
VNobody here
p1100
ssVspecials
p1101
(dp1102
Vcount
p1103
I0
sVitems
p1104
(lp1105
ssVcontact
p1106
(dp1107
sVlocation
p1108
(dp1109
Vdistance
p1110
I68
sVcity
p1111
VBrooklyn
p1112
sVcc
p1113
VUS
p1114
sVcountry
p1115
VUnited States
p1116
sVpostalCode
p1117
V11216
p1118
sVstate
p1119
VNY
p1120
sVformattedAddress
p1121
(lp1122
V449 Nostrand Ave (hancock & halsey)
p1123
aVBrooklyn, NY 11216
p1124
aVUnited States
p1125
asVcrossStreet
p1126
Vhancock & halsey
p1127
sVaddress
p1128
V449 Nostrand Ave
p1129
sVlat
p1130
F40.684772
sVlng
p1131
F-73.954461
ssVstats
p1132
(dp1133
VtipCount
p1134
I0
sVcheckinsCount
p1135
I1
sVusersCount
p1136
I1
ssVid
p1137
V4bd4c30f5631c9b6a918a330
p1138
sVcategories
p1139
(lp1140
sa(dp1141
Vverified
p1142
I00
sVname
p1143
VMTA Bus - B44/B44+SBS+ - Bedford Avenue & Gates Avenue
p1144
sVreferralId
p1145
Vv-1459670938
p1146
sVvenueChains
p1147
(lp1148
sVhereNow
p1149
(dp1150
Vcount
p1151
I0
sVgroups
p1152
(lp1153
sVsummary
p1154
VNobody here
p1155
ssVspecials
p1156
(dp1157
Vcount
p1158
I0
sVitems
p1159
(lp1160
ssVcontact
p1161
(dp1162
sVlocation
p1163
(dp1164
Vdistance
p1165
I107
sVcity
p1166
VBrooklyn
p1167
sVcc
p1168
VUS
p1169
sVcountry
p1170
VUnited States
p1171
sVstate
p1172
VNY
p1173
sVformattedAddress
p1174
(lp1175
VBedford Avenue (Gates Avenue)
p1176
aVBrooklyn, NY
p1177
aVUnited States
p1178
asVcrossStreet
p1179
VGates Avenue
p1180
sVaddress
p1181
VBedford Avenue
p1182
sVlat
p1183
F40.68604028477343
sVlng
p1184
F-73.95429611206055
ssVstats
p1185
(dp1186
VtipCount
p1187
I0
sVcheckinsCount
p1188
I324
sVusersCount
p1189
I34
ssVid
p1190
V4e11da7be4cdef074b76ddc3
p1191
sVcategories
p1192
(lp1193
(dp1194
VpluralName
p1195
VBus Lines
p1196
sVprimary
p1197
I01
sVname
p1198
VBus Line
p1199
sVshortName
p1200
VBus
p1201
sVid
p1202
V4bf58dd8d48988d12b951735
p1203
sVicon
p1204
(dp1205
Vprefix
p1206
Vhttps://ss3.4sqi.net/img/categories_v2/travel/busstation_
p1207
sVsuffix
p1208
V.png
p1209
ssasa(dp1210
Vverified
p1211
I00
sVname
p1212
VMasjid Abdul Mushi Khalifah
p1213
sVreferralId
p1214
Vv-1459670938
p1215
sVvenueChains
p1216
(lp1217
sVhereNow
p1218
(dp1219
Vcount
p1220
I0
sVgroups
p1221
(lp1222
sVsummary
p1223
VNobody here
p1224
ssVspecials
p1225
(dp1226
Vcount
p1227
I0
sVitems
p1228
(lp1229
ssVcontact
p1230
(dp1231
sVlocation
p1232
(dp1233
Vdistance
p1234
I107
sVcity
p1235
VBrooklyn
p1236
sVcc
p1237
VUS
p1238
sVcountry
p1239
VUnited States
p1240
sVpostalCode
p1241
V11216
p1242
sVstate
p1243
VNY
p1244
sVformattedAddress
p1245
(lp1246
V112-114 Madison St
p1247
aVBrooklyn, NY 11216
p1248
aVUnited States
p1249
asVaddress
p1250
V112-114 Madison St
p1251
sVlat
p1252
F40.68427129769444
sVlng
p1253
F-73.95436533541003
ssVstats
p1254
(dp1255
VtipCount
p1256
I1
sVcheckinsCount
p1257
I30
sVusersCount
p1258
I12
ssVid
p1259
V4c8be0085e38b1f7ff202cf9
p1260
sVcategories
p1261
(lp1262
(dp1263
VpluralName
p1264
VMosques
p1265
sVprimary
p1266
I01
sVname
p1267
VMosque
p1268
sVshortName
p1269
VMosque
p1270
sVid
p1271
V4bf58dd8d48988d138941735
p1272
sVicon
p1273
(dp1274
Vprefix
p1275
Vhttps://ss3.4sqi.net/img/categories_v2/building/religious_mosque_
p1276
sVsuffix
p1277
V.png
p1278
ssasa(dp1279
Vverified
p1280
I00
sVname
p1281
VThe Ottoman Empire
p1282
sVreferralId
p1283
Vv-1459670938
p1284
sVvenueChains
p1285
(lp1286
sVhereNow
p1287
(dp1288
Vcount
p1289
I0
sVgroups
p1290
(lp1291
sVsummary
p1292
VNobody here
p1293
ssVspecials
p1294
(dp1295
Vcount
p1296
I0
sVitems
p1297
(lp1298
ssVallowMenuUrlEdit
p1299
I01
sVcontact
p1300
(dp1301
sVlocation
p1302
(dp1303
Vdistance
p1304
I105
sVcity
p1305
VBrooklyn
p1306
sVcc
p1307
VUS
p1308
sVcountry
p1309
VUnited States
p1310
sVstate
p1311
VNY
p1312
sVformattedAddress
p1313
(lp1314
VBrooklyn, NY
p1315
aVUnited States
p1316
asVlat
p1317
F40.685726
sVlng
p1318
F-73.954789
ssVstats
p1319
(dp1320
VtipCount
p1321
I0
sVcheckinsCount
p1322
I1
sVusersCount
p1323
I1
ssVid
p1324
V52f4750c498e6f04a78e9ca0
p1325
sVcategories
p1326
(lp1327
(dp1328
VpluralName
p1329
VWine Bars
p1330
sVprimary
p1331
I01
sVname
p1332
VWine Bar
p1333
sVshortName
p1334
VWine Bar
p1335
sVid
p1336
V4bf58dd8d48988d123941735
p1337
sVicon
p1338
(dp1339
Vprefix
p1340
Vhttps://ss3.4sqi.net/img/categories_v2/food/winery_
p1341
sVsuffix
p1342
V.png
p1343
ssasa(dp1344
Vverified
p1345
I00
sVname
p1346
VBrooklyn Deli Grocery
p1347
sVreferralId
p1348
Vv-1459670938
p1349
sVvenueChains
p1350
(lp1351
sVhereNow
p1352
(dp1353
Vcount
p1354
I0
sVgroups
p1355
(lp1356
sVsummary
p1357
VNobody here
p1358
ssVspecials
p1359
(dp1360
Vcount
p1361
I0
sVitems
p1362
(lp1363
ssVallowMenuUrlEdit
p1364
I01
sVcontact
p1365
(dp1366
sVlocation
p1367
(dp1368
Vdistance
p1369
I98
sVcc
p1370
VUS
p1371
sVcountry
p1372
VUnited States
p1373
sVpostalCode
p1374
V11216
p1375
sVstate
p1376
VNew York
p1377
sVformattedAddress
p1378
(lp1379
V1147 Bedford Ave
p1380
aVNY 11216
p1381
aVUnited States
p1382
asVaddress
p1383
V1147 Bedford Ave
p1384
sVlat
p1385
F40.68425506869529
sVlng
p1386
F-73.95381429470395
ssVstats
p1387
(dp1388
VtipCount
p1389
I0
sVcheckinsCount
p1390
I19
sVusersCount
p1391
I15
ssVid
p1392
V4edb8aa8f9abeea3dafc0e5f
p1393
sVcategories
p1394
(lp1395
(dp1396
VpluralName
p1397
VDelis / Bodegas
p1398
sVprimary
p1399
I01
sVname
p1400
VDeli / Bodega
p1401
sVshortName
p1402
VDeli / Bodega
p1403
sVid
p1404
V4bf58dd8d48988d146941735
p1405
sVicon
p1406
(dp1407
Vprefix
p1408
Vhttps://ss3.4sqi.net/img/categories_v2/food/deli_
p1409
sVsuffix
p1410
V.png
p1411
ssasa(dp1412
Vverified
p1413
I00
sVname
p1414
VMTA Bus - B52 - Gates Av & Franklin Av
p1415
sVreferralId
p1416
Vv-1459670938
p1417
sVvenueChains
p1418
(lp1419
sVhereNow
p1420
(dp1421
Vcount
p1422
I0
sVgroups
p1423
(lp1424
sVsummary
p1425
VNobody here
p1426
ssVspecials
p1427
(dp1428
Vcount
p1429
I0
sVitems
p1430
(lp1431
ssVcontact
p1432
(dp1433
sVlocation
p1434
(dp1435
Vdistance
p1436
I98
sVcity
p1437
VBrooklyn
p1438
sVcc
p1439
VUS
p1440
sVcountry
p1441
VUnited States
p1442
sVpostalCode
p1443
V11216
p1444
sVstate
p1445
VNY
p1446
sVformattedAddress
p1447
(lp1448
VGates Av & Franklin Av
p1449
aVBrooklyn, NY 11216
p1450
aVUnited States
p1451
asVaddress
p1452
VGates Av & Franklin Av
p1453
sVlat
p1454
F40.68593971267196
sVlng
p1455
F-73.95431941541123
ssVstats
p1456
(dp1457
VtipCount
p1458
I0
sVcheckinsCount
p1459
I440
sVusersCount
p1460
I26
ssVid
p1461
V4f404b7fe4b0193961db98d4
p1462
sVcategories
p1463
(lp1464
(dp1465
VpluralName
p1466
VBus Lines
p1467
sVprimary
p1468
I01
sVname
p1469
VBus Line
p1470
sVshortName
p1471
VBus
p1472
sVid
p1473
V4bf58dd8d48988d12b951735
p1474
sVicon
p1475
(dp1476
Vprefix
p1477
Vhttps://ss3.4sqi.net/img/categories_v2/travel/busstation_
p1478
sVsuffix
p1479
V.png
p1480
ssasa(dp1481
Vverified
p1482
I00
sVname
p1483
VArkham Crew Social Club
p1484
sVreferralId
p1485
Vv-1459670938
p1486
sVvenueChains
p1487
(lp1488
sVhereNow
p1489
(dp1490
Vcount
p1491
I0
sVgroups
p1492
(lp1493
sVsummary
p1494
VNobody here
p1495
ssVspecials
p1496
(dp1497
Vcount
p1498
I0
sVitems
p1499
(lp1500
ssVcontact
p1501
(dp1502
Vphone
p1503
V7183992979
p1504
sVtwitter
p1505
Varkhamcrewsc
p1506
sVformattedPhone
p1507
V(718) 399-2979
p1508
ssVlocation
p1509
(dp1510
Vdistance
p1511
I105
sVcity
p1512
VBrooklyn
p1513
sVcc
p1514
VUS
p1515
sVcountry
p1516
VUnited States
p1517
sVpostalCode
p1518
V11216
p1519
sVstate
p1520
VNY
p1521
sVformattedAddress
p1522
(lp1523
V135 Madison St (Bedford / Nostrand Ave)
p1524
aVBrooklyn, NY 11216
p1525
aVUnited States
p1526
asVcrossStreet
p1527
VBedford / Nostrand Ave
p1528
sVaddress
p1529
V135 Madison St
p1530
sVlat
p1531
F40.684283038536826
sVlng
p1532
F-73.95329769261444
ssVstats
p1533
(dp1534
VtipCount
p1535
I0
sVcheckinsCount
p1536
I5
sVusersCount
p1537
I1
ssVid
p1538
V4f79f419e4b0b009f09a8d8b
p1539
sVcategories
p1540
(lp1541
(dp1542
VpluralName
p1543
VFraternity Houses
p1544
sVprimary
p1545
I01
sVname
p1546
VFraternity House
p1547
sVshortName
p1548
VFrat House
p1549
sVid
p1550
V4bf58dd8d48988d1b0941735
p1551
sVicon
p1552
(dp1553
Vprefix
p1554
Vhttps://ss3.4sqi.net/img/categories_v2/education/frathouse_
p1555
sVsuffix
p1556
V.png
p1557
ssasa(dp1558
Vverified
p1559
I00
sVname
p1560
V111 monroe Street
p1561
sVreferralId
p1562
Vv-1459670938
p1563
sVvenueChains
p1564
(lp1565
sVhereNow
p1566
(dp1567
Vcount
p1568
I0
sVgroups
p1569
(lp1570
sVsummary
p1571
VNobody here
p1572
ssVspecials
p1573
(dp1574
Vcount
p1575
I0
sVitems
p1576
(lp1577
ssVcontact
p1578
(dp1579
sVlocation
p1580
(dp1581
Vdistance
p1582
I94
sVcity
p1583
VBrooklyn
p1584
sVcc
p1585
VUS
p1586
sVcountry
p1587
VUnited States
p1588
sVpostalCode
p1589
V11216
p1590
sVstate
p1591
VNY
p1592
sVformattedAddress
p1593
(lp1594
VBrooklyn, NY 11216
p1595
aVUnited States
p1596
asVlat
p1597
F40.68494940696951
sVlng
p1598
F-73.95489341461162
ssVstats
p1599
(dp1600
VtipCount
p1601
I0
sVcheckinsCount
p1602
I15
sVusersCount
p1603
I6
ssVid
p1604
V50f20c48e4b0403bd70b6d2e
p1605
sVcategories
p1606
(lp1607
(dp1608
VpluralName
p1609
VResidential Buildings (Apartments / Condos)
p1610
sVprimary
p1611
I01
sVname
p1612
VResidential Building (Apartment / Condo)
p1613
sVshortName
p1614
VResidential
p1615
sVid
p1616
V4d954b06a243a5684965b473
p1617
sVicon
p1618
(dp1619
Vprefix
p1620
Vhttps://ss3.4sqi.net/img/categories_v2/building/apartment_
p1621
sVsuffix
p1622
V.png
p1623
ssasa(dp1624
Vverified
p1625
I00
sVname
p1626
VHancock St.
p1627
sVreferralId
p1628
Vv-1459670938
p1629
sVvenueChains
p1630
(lp1631
sVhereNow
p1632
(dp1633
Vcount
p1634
I0
sVgroups
p1635
(lp1636
sVsummary
p1637
VNobody here
p1638
ssVspecials
p1639
(dp1640
Vcount
p1641
I0
sVitems
p1642
(lp1643
ssVcontact
p1644
(dp1645
sVlocation
p1646
(dp1647
Vdistance
p1648
I97
sVcity
p1649
VBrooklyn
p1650
sVcc
p1651
VUS
p1652
sVcountry
p1653
VUnited States
p1654
sVpostalCode
p1655
V11221
p1656
sVstate
p1657
VNY
p1658
sVformattedAddress
p1659
(lp1660
VBrooklyn, NY 11221
p1661
aVUnited States
p1662
asVlat
p1663
F40.68581434502625
sVlng
p1664
F-73.95306235120458
ssVstats
p1665
(dp1666
VtipCount
p1667
I0
sVcheckinsCount
p1668
I51
sVusersCount
p1669
I27
ssVid
p1670
V502bd0f1e4b0a87aac72e077
p1671
sVcategories
p1672
(lp1673
(dp1674
VpluralName
p1675
VMoving Targets
p1676
sVprimary
p1677
I01
sVname
p1678
VMoving Target
p1679
sVshortName
p1680
VMoving Target
p1681
sVid
p1682
V4f2a23984b9023bd5841ed2c
p1683
sVicon
p1684
(dp1685
Vprefix
p1686
Vhttps://ss3.4sqi.net/img/categories_v2/travel/movingtarget_
p1687
sVsuffix
p1688
V.png
p1689
ssasa(dp1690
Vverified
p1691
I00
sVname
p1692
VSuper Express Deli Grocery
p1693
sVreferralId
p1694
Vv-1459670938
p1695
sVvenueChains
p1696
(lp1697
sVhereNow
p1698
(dp1699
Vcount
p1700
I0
sVgroups
p1701
(lp1702
sVsummary
p1703
VNobody here
p1704
ssVspecials
p1705
(dp1706
Vcount
p1707
I0
sVitems
p1708
(lp1709
ssVallowMenuUrlEdit
p1710
I01
sVcontact
p1711
(dp1712
Vphone
p1713
V7186224179
p1714
sVformattedPhone
p1715
V(718) 622-4179
p1716
ssVlocation
p1717
(dp1718
Vdistance
p1719
I92
sVcity
p1720
VBrooklyn
p1721
sVcc
p1722
VUS
p1723
sVcountry
p1724
VUnited States
p1725
sVpostalCode
p1726
V11216
p1727
sVstate
p1728
VNY
p1729
sVformattedAddress
p1730
(lp1731
V1199 Bedford Avenue (Hancock Street)
p1732
aVBrooklyn, NY 11216
p1733
aVUnited States
p1734
asVcrossStreet
p1735
VHancock Street
p1736
sVaddress
p1737
V1199 Bedford Avenue
p1738
sVlat
p1739
F40.68440146451633
sVlng
p1740
F-73.95332639276677
ssVstats
p1741
(dp1742
VtipCount
p1743
I0
sVcheckinsCount
p1744
I305
sVusersCount
p1745
I22
ssVid
p1746
V4e0e8ae31838f62321c701fe
p1747
sVcategories
p1748
(lp1749
(dp1750
VpluralName
p1751
VDelis / Bodegas
p1752
sVprimary
p1753
I01
sVname
p1754
VDeli / Bodega
p1755
sVshortName
p1756
VDeli / Bodega
p1757
sVid
p1758
V4bf58dd8d48988d146941735
p1759
sVicon
p1760
(dp1761
Vprefix
p1762
Vhttps://ss3.4sqi.net/img/categories_v2/food/deli_
p1763
sVsuffix
p1764
V.png
p1765
ssasa(dp1766
Vverified
p1767
I00
sVname
p1768
VMTA B52 Gates & Classon
p1769
sVreferralId
p1770
Vv-1459670938
p1771
sVvenueChains
p1772
(lp1773
sVhereNow
p1774
(dp1775
Vcount
p1776
I0
sVgroups
p1777
(lp1778
sVsummary
p1779
VNobody here
p1780
ssVspecials
p1781
(dp1782
Vcount
p1783
I0
sVitems
p1784
(lp1785
ssVcontact
p1786
(dp1787
sVlocation
p1788
(dp1789
Vdistance
p1790
I101
sVcity
p1791
VBrooklyn
p1792
sVcc
p1793
VUS
p1794
sVcountry
p1795
VUnited States
p1796
sVpostalCode
p1797
V11238
p1798
sVstate
p1799
VNY
p1800
sVformattedAddress
p1801
(lp1802
VBrooklyn, NY 11238
p1803
aVUnited States
p1804
asVlat
p1805
F40.68566959335187
sVlng
p1806
F-73.95479009488143
ssVstats
p1807
(dp1808
VtipCount
p1809
I0
sVcheckinsCount
p1810
I418
sVusersCount
p1811
I38
ssVid
p1812
V4cf05a441d18a143b9f04bec
p1813
sVcategories
p1814
(lp1815
(dp1816
VpluralName
p1817
VBus Lines
p1818
sVprimary
p1819
I01
sVname
p1820
VBus Line
p1821
sVshortName
p1822
VBus
p1823
sVid
p1824
V4bf58dd8d48988d12b951735
p1825
sVicon
p1826
(dp1827
Vprefix
p1828
Vhttps://ss3.4sqi.net/img/categories_v2/travel/busstation_
p1829
sVsuffix
p1830
V.png
p1831
ssasa(dp1832
Vspecials
p1833
(dp1834
Vcount
p1835
I0
sVitems
p1836
(lp1837
ssVhasMenu
p1838
I01
sVverified
p1839
I00
sVname
p1840
VJoloff Restaurant 2
p1841
sVreferralId
p1842
Vv-1459670938
p1843
sVvenueChains
p1844
(lp1845
sVurl
p1846
Vhttp://joloffjoloff.com
p1847
sVmenu
p1848
(dp1849
Vurl
p1850
Vhttps://foursquare.com/v/joloff-restaurant-2/4e3d9c702271d21e86f8ca4e/menu
p1851
sVmobileUrl
p1852
Vhttps://foursquare.com/v/4e3d9c702271d21e86f8ca4e/device_menu
p1853
sVtype
p1854
VMenu
p1855
sVanchor
p1856
VView Menu
p1857
sVlabel
p1858
VMenu
p1859
ssVhereNow
p1860
(dp1861
Vcount
p1862
I0
sVgroups
p1863
(lp1864
sVsummary
p1865
VNobody here
p1866
ssVdelivery
p1867
(dp1868
Vurl
p1869
Vhttp://www.seamless.com/food-delivery/restaurant.28099.r?a=1026&utm_source=Foursquare&utm_medium=affiliate&utm_campaign=SeamlessOrderDeliveryLink
p1870
sVid
p1871
V28099
p1872
sVprovider
p1873
(dp1874
Vname
p1875
Vseamless
p1876
sssVallowMenuUrlEdit
p1877
I01
sVcontact
p1878
(dp1879
Vphone
p1880
V7182300523
p1881
sVtwitter
p1882
Vjoloffbk
p1883
sVformattedPhone
p1884
V(718) 230-0523
p1885
ssVlocation
p1886
(dp1887
Vdistance
p1888
I108
sVcity
p1889
VBrooklyn
p1890
sVcc
p1891
VUS
p1892
sVcountry
p1893
VUnited States
p1894
sVpostalCode
p1895
V11216
p1896
sVstate
p1897
VNY
p1898
sVformattedAddress
p1899
(lp1900
V1168 Bedford Ave (Putnam Avenue and Madison Street)
p1901
aVBrooklyn, NY 11216
p1902
aVUnited States
p1903
asVcrossStreet
p1904
VPutnam Avenue and Madison Street
p1905
sVaddress
p1906
V1168 Bedford Ave
p1907
sVlat
p1908
F40.68420642577094
sVlng
p1909
F-73.95414147531277
ssVstats
p1910
(dp1911
VtipCount
p1912
I10
sVcheckinsCount
p1913
I287
sVusersCount
p1914
I225
ssVid
p1915
V4e3d9c702271d21e86f8ca4e
p1916
sVcategories
p1917
(lp1918
(dp1919
VpluralName
p1920
VAfrican Restaurants
p1921
sVprimary
p1922
I01
sVname
p1923
VAfrican Restaurant
p1924
sVshortName
p1925
VAfrican
p1926
sVid
p1927
V4bf58dd8d48988d1c8941735
p1928
sVicon
p1929
(dp1930
Vprefix
p1931
Vhttps://ss3.4sqi.net/img/categories_v2/food/african_
p1932
sVsuffix
p1933
V.png
p1934
ssasa(dp1935
Vverified
p1936
I00
sVname
p1937
VCWC Church Of The Nazarene
p1938
sVreferralId
p1939
Vv-1459670938
p1940
sVvenueChains
p1941
(lp1942
sVhereNow
p1943
(dp1944
Vcount
p1945
I0
sVgroups
p1946
(lp1947
sVsummary
p1948
VNobody here
p1949
ssVspecials
p1950
(dp1951
Vcount
p1952
I0
sVitems
p1953
(lp1954
ssVcontact
p1955
(dp1956
sVlocation
p1957
(dp1958
Vdistance
p1959
I94
sVcity
p1960
VBrooklyn
p1961
sVcc
p1962
VUS
p1963
sVcountry
p1964
VUnited States
p1965
sVpostalCode
p1966
V11216
p1967
sVstate
p1968
VNY
p1969
sVformattedAddress
p1970
(lp1971
V117 Madison St (Bedford)
p1972
aVBrooklyn, NY 11216
p1973
aVUnited States
p1974
asVcrossStreet
p1975
VBedford
p1976
sVaddress
p1977
V117 Madison St
p1978
sVlat
p1979
F40.6844414316827
sVlng
p1980
F-73.95444569538166
ssVstats
p1981
(dp1982
VtipCount
p1983
I3
sVcheckinsCount
p1984
I281
sVusersCount
p1985
I31
ssVid
p1986
V4e0bd04b483b07129c1f4ee0
p1987
sVcategories
p1988
(lp1989
(dp1990
VpluralName
p1991
VChurches
p1992
sVprimary
p1993
I01
sVname
p1994
VChurch
p1995
sVshortName
p1996
VChurch
p1997
sVid
p1998
V4bf58dd8d48988d132941735
p1999
sVicon
p2000
(dp2001
Vprefix
p2002
Vhttps://ss3.4sqi.net/img/categories_v2/building/religious_church_
p2003
sVsuffix
p2004
V.png
p2005
ssasa(dp2006
Vverified
p2007
I00
sVname
p2008
VI Mail and More
p2009
sVreferralId
p2010
Vv-1459670938
p2011
sVvenueChains
p2012
(lp2013
sVhereNow
p2014
(dp2015
Vcount
p2016
I0
sVgroups
p2017
(lp2018
sVsummary
p2019
VNobody here
p2020
ssVspecials
p2021
(dp2022
Vcount
p2023
I0
sVitems
p2024
(lp2025
ssVallowMenuUrlEdit
p2026
I01
sVcontact
p2027
(dp2028
Vphone
p2029
V7186224612
p2030
sVformattedPhone
p2031
V(718) 622-4612
p2032
ssVlocation
p2033
(dp2034
Vdistance
p2035
I94
sVcity
p2036
VBrooklyn
p2037
sVcc
p2038
VUS
p2039
sVcountry
p2040
VUnited States
p2041
sVpostalCode
p2042
V11216
p2043
sVstate
p2044
VNY
p2045
sVformattedAddress
p2046
(lp2047
V1124 Bedford Ave (Gates Ave)
p2048
aVBrooklyn, NY 11216
p2049
aVUnited States
p2050
asVcrossStreet
p2051
VGates Ave
p2052
sVaddress
p2053
V1124 Bedford Ave
p2054
sVlat
p2055
F40.68588608016666
sVlng
p2056
F-73.95434811541176
ssVstats
p2057
(dp2058
VtipCount
p2059
I2
sVcheckinsCount
p2060
I18
sVusersCount
p2061
I13
ssVid
p2062
V525572d1498e62794e84a1d9
p2063
sVcategories
p2064
(lp2065
(dp2066
VpluralName
p2067
VPost Offices
p2068
sVprimary
p2069
I01
sVname
p2070
VPost Office
p2071
sVshortName
p2072
VPost Office
p2073
sVid
p2074
V4bf58dd8d48988d172941735
p2075
sVicon
p2076
(dp2077
Vprefix
p2078
Vhttps://ss3.4sqi.net/img/categories_v2/building/postoffice_
p2079
sVsuffix
p2080
V.png
p2081
ssasa(dp2082
Vverified
p2083
I00
sVname
p2084
VGolden Girlz Secret Headquarters
p2085
sVreferralId
p2086
Vv-1459670938
p2087
sVvenueChains
p2088
(lp2089
sVhereNow
p2090
(dp2091
Vcount
p2092
I0
sVgroups
p2093
(lp2094
sVsummary
p2095
VNobody here
p2096
ssVspecials
p2097
(dp2098
Vcount
p2099
I0
sVitems
p2100
(lp2101
ssVcontact
p2102
(dp2103
sVlocation
p2104
(dp2105
Vdistance
p2106
I132
sVcity
p2107
VBrooklyn
p2108
sVcc
p2109
VUS
p2110
sVcountry
p2111
VUnited States
p2112
sVpostalCode
p2113
V11216
p2114
sVstate
p2115
VNY
p2116
sVformattedAddress
p2117
(lp2118
VBrooklyn, NY 11216
p2119
aVUnited States
p2120
asVlat
p2121
F40.68416
sVlng
p2122
F-73.95292
ssVstats
p2123
(dp2124
VtipCount
p2125
I1
sVcheckinsCount
p2126
I19
sVusersCount
p2127
I13
ssVid
p2128
V4b79d10bf964a520fc132fe3
p2129
sVcategories
p2130
(lp2131
sa(dp2132
Vverified
p2133
I00
sVname
p2134
VPanorama Galleries
p2135
sVreferralId
p2136
Vv-1459670938
p2137
sVvenueChains
p2138
(lp2139
sVhereNow
p2140
(dp2141
Vcount
p2142
I0
sVgroups
p2143
(lp2144
sVsummary
p2145
VNobody here
p2146
ssVspecials
p2147
(dp2148
Vcount
p2149
I0
sVitems
p2150
(lp2151
ssVallowMenuUrlEdit
p2152
I01
sVcontact
p2153
(dp2154
Vphone
p2155
V7183985400
p2156
sVformattedPhone
p2157
V(718) 398-5400
p2158
ssVlocation
p2159
(dp2160
Vdistance
p2161
I135
sVcity
p2162
VBrooklyn
p2163
sVcc
p2164
VUS
p2165
sVcountry
p2166
VUnited States
p2167
sVpostalCode
p2168
V11216
p2169
sVstate
p2170
VNY
p2171
sVformattedAddress
p2172
(lp2173
V1151 Bedford Ave
p2174
aVBrooklyn, NY 11216
p2175
aVUnited States
p2176
asVaddress
p2177
V1151 Bedford Ave
p2178
sVlat
p2179
F40.683927470460866
sVlng
p2180
F-73.95391187494351
ssVstats
p2181
(dp2182
VtipCount
p2183
I1
sVcheckinsCount
p2184
I8
sVusersCount
p2185
I7
ssVid
p2186
V4dffa314483b8f033b44762f
p2187
sVcategories
p2188
(lp2189
(dp2190
VpluralName
p2191
VFurniture / Home Stores
p2192
sVprimary
p2193
I01
sVname
p2194
VFurniture / Home Store
p2195
sVshortName
p2196
VFurniture / Home
p2197
sVid
p2198
V4bf58dd8d48988d1f8941735
p2199
sVicon
p2200
(dp2201
Vprefix
p2202
Vhttps://ss3.4sqi.net/img/categories_v2/shops/furniture_
p2203
sVsuffix
p2204
V.png
p2205
ssasas.